
Debug/bin/CortexFilter.elf:     file format elf32-littlearm


Disassembly of section .text:

00000000 <g_pfnVectors>:
       0:	5c 04 00 10 a9 13 00 00 a5 13 00 00 a5 13 00 00     \...............
      10:	a5 13 00 00 a5 13 00 00 a5 13 00 00 00 00 00 00     ................
	...
      2c:	a5 13 00 00 a5 13 00 00 00 00 00 00 a5 13 00 00     ................
      3c:	a9 11 00 00 a5 13 00 00 a5 13 00 00 a5 13 00 00     ................
      4c:	a5 13 00 00 a5 13 00 00 a5 13 00 00 a5 13 00 00     ................
      5c:	a5 13 00 00 a5 13 00 00 a5 13 00 00 a5 13 00 00     ................
      6c:	a5 13 00 00 a5 13 00 00 a5 13 00 00 a5 13 00 00     ................
      7c:	a5 13 00 00 a5 13 00 00 a5 13 00 00 a5 13 00 00     ................
      8c:	a5 13 00 00 a5 13 00 00 a5 13 00 00 a5 13 00 00     ................
      9c:	a5 13 00 00 a5 13 00 00 a5 13 00 00 21 12 00 00     ............!...
      ac:	a5 13 00 00 a5 13 00 00 a5 13 00 00 a5 13 00 00     ................
      bc:	a5 13 00 00 a5 13 00 00 a5 13 00 00 a5 13 00 00     ................

000000cc <CLKPWR_GetPCLK>:
      cc:	f44f 4240 	mov.w	r2, #49152	; 0xc000
      d0:	281f      	cmp	r0, #31
      d2:	f2c4 020f 	movt	r2, #16399	; 0x400f
      d6:	bf92      	itee	ls
      d8:	f8d2 21a8 	ldrls.w	r2, [r2, #424]	; 0x1a8
      dc:	f8d2 21ac 	ldrhi.w	r2, [r2, #428]	; 0x1ac
      e0:	3820      	subhi	r0, #32
      e2:	fa22 f000 	lsr.w	r0, r2, r0
      e6:	4b08      	ldr	r3, [pc, #32]	; (108 <CLKPWR_GetPCLK+0x3c>)
      e8:	f010 0003 	ands.w	r0, r0, #3
      ec:	681b      	ldr	r3, [r3, #0]
      ee:	d103      	bne.n	f8 <CLKPWR_GetPCLK+0x2c>
      f0:	2004      	movs	r0, #4
      f2:	fbb3 f0f0 	udiv	r0, r3, r0
      f6:	4770      	bx	lr
      f8:	2802      	cmp	r0, #2
      fa:	d9fa      	bls.n	f2 <CLKPWR_GetPCLK+0x26>
      fc:	2803      	cmp	r0, #3
      fe:	d1f7      	bne.n	f0 <CLKPWR_GetPCLK+0x24>
     100:	2008      	movs	r0, #8
     102:	fbb3 f0f0 	udiv	r0, r3, r0
     106:	4770      	bx	lr
     108:	10000000 	.word	0x10000000

0000010c <CLKPWR_ConfigPPWR>:
     10c:	2901      	cmp	r1, #1
     10e:	d010      	beq.n	132 <CLKPWR_ConfigPPWR+0x26>
     110:	b971      	cbnz	r1, 130 <CLKPWR_ConfigPPWR+0x24>
     112:	f44f 4240 	mov.w	r2, #49152	; 0xc000
     116:	f2c4 020f 	movt	r2, #16399	; 0x400f
     11a:	f8d2 10c4 	ldr.w	r1, [r2, #196]	; 0xc4
     11e:	f24f 73de 	movw	r3, #63454	; 0xf7de
     122:	f6ce 73ef 	movt	r3, #61423	; 0xefef
     126:	400b      	ands	r3, r1
     128:	ea23 0300 	bic.w	r3, r3, r0
     12c:	f8c2 30c4 	str.w	r3, [r2, #196]	; 0xc4
     130:	4770      	bx	lr
     132:	f44f 4240 	mov.w	r2, #49152	; 0xc000
     136:	f2c4 020f 	movt	r2, #16399	; 0x400f
     13a:	f24f 73de 	movw	r3, #63454	; 0xf7de
     13e:	f8d2 10c4 	ldr.w	r1, [r2, #196]	; 0xc4
     142:	f6ce 73ef 	movt	r3, #61423	; 0xefef
     146:	4003      	ands	r3, r0
     148:	430b      	orrs	r3, r1
     14a:	f8c2 30c4 	str.w	r3, [r2, #196]	; 0xc4
     14e:	4770      	bx	lr

00000150 <SystemCoreClockUpdate>:
     150:	f44f 4340 	mov.w	r3, #49152	; 0xc000
     154:	f2c4 030f 	movt	r3, #16399	; 0x400f
     158:	f8d3 2088 	ldr.w	r2, [r3, #136]	; 0x88
     15c:	f3c2 6201 	ubfx	r2, r2, #24, #2
     160:	2a03      	cmp	r2, #3
     162:	f8d3 210c 	ldr.w	r2, [r3, #268]	; 0x10c
     166:	f002 0203 	and.w	r2, r2, #3
     16a:	d010      	beq.n	18e <SystemCoreClockUpdate+0x3e>
     16c:	2a01      	cmp	r2, #1
     16e:	d03e      	beq.n	1ee <SystemCoreClockUpdate+0x9e>
     170:	2a02      	cmp	r2, #2
     172:	f8d3 2104 	ldr.w	r2, [r3, #260]	; 0x104
     176:	d028      	beq.n	1ca <SystemCoreClockUpdate+0x7a>
     178:	f44f 6310 	mov.w	r3, #2304	; 0x900
     17c:	b2d2      	uxtb	r2, r2
     17e:	3201      	adds	r2, #1
     180:	f2c0 033d 	movt	r3, #61	; 0x3d
     184:	fbb3 f3f2 	udiv	r3, r3, r2
     188:	4a2a      	ldr	r2, [pc, #168]	; (234 <SystemCoreClockUpdate+0xe4>)
     18a:	6013      	str	r3, [r2, #0]
     18c:	4770      	bx	lr
     18e:	2a01      	cmp	r2, #1
     190:	d024      	beq.n	1dc <SystemCoreClockUpdate+0x8c>
     192:	2a02      	cmp	r2, #2
     194:	d038      	beq.n	208 <SystemCoreClockUpdate+0xb8>
     196:	f8d3 1088 	ldr.w	r1, [r3, #136]	; 0x88
     19a:	f44f 5290 	mov.w	r2, #4608	; 0x1200
     19e:	0449      	lsls	r1, r1, #17
     1a0:	0c49      	lsrs	r1, r1, #17
     1a2:	f2c0 027a 	movt	r2, #122	; 0x7a
     1a6:	f8d3 0088 	ldr.w	r0, [r3, #136]	; 0x88
     1aa:	fb01 2202 	mla	r2, r1, r2, r2
     1ae:	f8d3 3104 	ldr.w	r3, [r3, #260]	; 0x104
     1b2:	f3c0 4007 	ubfx	r0, r0, #16, #8
     1b6:	3001      	adds	r0, #1
     1b8:	b2db      	uxtb	r3, r3
     1ba:	3301      	adds	r3, #1
     1bc:	fbb2 f2f0 	udiv	r2, r2, r0
     1c0:	fbb2 f2f3 	udiv	r2, r2, r3
     1c4:	4b1b      	ldr	r3, [pc, #108]	; (234 <SystemCoreClockUpdate+0xe4>)
     1c6:	601a      	str	r2, [r3, #0]
     1c8:	4770      	bx	lr
     1ca:	b2d2      	uxtb	r2, r2
     1cc:	f44f 4300 	mov.w	r3, #32768	; 0x8000
     1d0:	3201      	adds	r2, #1
     1d2:	fbb3 f2f2 	udiv	r2, r3, r2
     1d6:	4b17      	ldr	r3, [pc, #92]	; (234 <SystemCoreClockUpdate+0xe4>)
     1d8:	601a      	str	r2, [r3, #0]
     1da:	4770      	bx	lr
     1dc:	f8d3 1088 	ldr.w	r1, [r3, #136]	; 0x88
     1e0:	f44f 5258 	mov.w	r2, #13824	; 0x3600
     1e4:	0449      	lsls	r1, r1, #17
     1e6:	0c49      	lsrs	r1, r1, #17
     1e8:	f2c0 126e 	movt	r2, #366	; 0x16e
     1ec:	e7db      	b.n	1a6 <SystemCoreClockUpdate+0x56>
     1ee:	f8d3 2104 	ldr.w	r2, [r3, #260]	; 0x104
     1f2:	f44f 53d8 	mov.w	r3, #6912	; 0x1b00
     1f6:	b2d2      	uxtb	r2, r2
     1f8:	3201      	adds	r2, #1
     1fa:	f2c0 03b7 	movt	r3, #183	; 0xb7
     1fe:	fbb3 f3f2 	udiv	r3, r3, r2
     202:	4a0c      	ldr	r2, [pc, #48]	; (234 <SystemCoreClockUpdate+0xe4>)
     204:	6013      	str	r3, [r2, #0]
     206:	4770      	bx	lr
     208:	f8d3 2088 	ldr.w	r2, [r3, #136]	; 0x88
     20c:	f8d3 1088 	ldr.w	r1, [r3, #136]	; 0x88
     210:	0452      	lsls	r2, r2, #17
     212:	f8d3 3104 	ldr.w	r3, [r3, #260]	; 0x104
     216:	0c52      	lsrs	r2, r2, #17
     218:	3201      	adds	r2, #1
     21a:	f3c1 4107 	ubfx	r1, r1, #16, #8
     21e:	0412      	lsls	r2, r2, #16
     220:	3101      	adds	r1, #1
     222:	b2db      	uxtb	r3, r3
     224:	3301      	adds	r3, #1
     226:	fbb2 f2f1 	udiv	r2, r2, r1
     22a:	fbb2 f2f3 	udiv	r2, r2, r3
     22e:	4b01      	ldr	r3, [pc, #4]	; (234 <SystemCoreClockUpdate+0xe4>)
     230:	601a      	str	r2, [r3, #0]
     232:	4770      	bx	lr
     234:	10000000 	.word	0x10000000

00000238 <SystemInit>:
     238:	f44f 4240 	mov.w	r2, #49152	; 0xc000
     23c:	2320      	movs	r3, #32
     23e:	f2c4 020f 	movt	r2, #16399	; 0x400f
     242:	b470      	push	{r4, r5, r6}
     244:	f8c2 31a0 	str.w	r3, [r2, #416]	; 0x1a0
     248:	f8d2 31a0 	ldr.w	r3, [r2, #416]	; 0x1a0
     24c:	069d      	lsls	r5, r3, #26
     24e:	d47a      	bmi.n	346 <SystemInit+0x10e>
     250:	f44f 4340 	mov.w	r3, #49152	; 0xc000
     254:	2563      	movs	r5, #99	; 0x63
     256:	f2c4 030f 	movt	r3, #16399	; 0x400f
     25a:	2600      	movs	r6, #0
     25c:	2401      	movs	r4, #1
     25e:	20aa      	movs	r0, #170	; 0xaa
     260:	2255      	movs	r2, #85	; 0x55
     262:	2103      	movs	r1, #3
     264:	f2c0 0505 	movt	r5, #5
     268:	f8c3 1104 	str.w	r1, [r3, #260]	; 0x104
     26c:	f8c3 61a8 	str.w	r6, [r3, #424]	; 0x1a8
     270:	4619      	mov	r1, r3
     272:	f8c3 61ac 	str.w	r6, [r3, #428]	; 0x1ac
     276:	f8c3 410c 	str.w	r4, [r3, #268]	; 0x10c
     27a:	f8c3 5084 	str.w	r5, [r3, #132]	; 0x84
     27e:	f8c3 008c 	str.w	r0, [r3, #140]	; 0x8c
     282:	f8c3 208c 	str.w	r2, [r3, #140]	; 0x8c
     286:	f8c3 4080 	str.w	r4, [r3, #128]	; 0x80
     28a:	f8c3 008c 	str.w	r0, [r3, #140]	; 0x8c
     28e:	f8c3 208c 	str.w	r2, [r3, #140]	; 0x8c
     292:	f8d1 2088 	ldr.w	r2, [r1, #136]	; 0x88
     296:	f44f 4340 	mov.w	r3, #49152	; 0xc000
     29a:	0150      	lsls	r0, r2, #5
     29c:	f2c4 030f 	movt	r3, #16399	; 0x400f
     2a0:	d5f7      	bpl.n	292 <SystemInit+0x5a>
     2a2:	2203      	movs	r2, #3
     2a4:	f8c3 2080 	str.w	r2, [r3, #128]	; 0x80
     2a8:	22aa      	movs	r2, #170	; 0xaa
     2aa:	f8c3 208c 	str.w	r2, [r3, #140]	; 0x8c
     2ae:	2255      	movs	r2, #85	; 0x55
     2b0:	4619      	mov	r1, r3
     2b2:	f8c3 208c 	str.w	r2, [r3, #140]	; 0x8c
     2b6:	f8d1 2088 	ldr.w	r2, [r1, #136]	; 0x88
     2ba:	f44f 4340 	mov.w	r3, #49152	; 0xc000
     2be:	f012 7f40 	tst.w	r2, #50331648	; 0x3000000
     2c2:	f2c4 030f 	movt	r3, #16399	; 0x400f
     2c6:	d0f6      	beq.n	2b6 <SystemInit+0x7e>
     2c8:	20aa      	movs	r0, #170	; 0xaa
     2ca:	2255      	movs	r2, #85	; 0x55
     2cc:	2123      	movs	r1, #35	; 0x23
     2ce:	2401      	movs	r4, #1
     2d0:	f8c3 10a4 	str.w	r1, [r3, #164]	; 0xa4
     2d4:	f8c3 00ac 	str.w	r0, [r3, #172]	; 0xac
     2d8:	4619      	mov	r1, r3
     2da:	f8c3 20ac 	str.w	r2, [r3, #172]	; 0xac
     2de:	f8c3 40a0 	str.w	r4, [r3, #160]	; 0xa0
     2e2:	f8c3 00ac 	str.w	r0, [r3, #172]	; 0xac
     2e6:	f8c3 20ac 	str.w	r2, [r3, #172]	; 0xac
     2ea:	f8d1 20a8 	ldr.w	r2, [r1, #168]	; 0xa8
     2ee:	f44f 4340 	mov.w	r3, #49152	; 0xc000
     2f2:	0552      	lsls	r2, r2, #21
     2f4:	f2c4 030f 	movt	r3, #16399	; 0x400f
     2f8:	d5f7      	bpl.n	2ea <SystemInit+0xb2>
     2fa:	2203      	movs	r2, #3
     2fc:	f8c3 20a0 	str.w	r2, [r3, #160]	; 0xa0
     300:	22aa      	movs	r2, #170	; 0xaa
     302:	f8c3 20ac 	str.w	r2, [r3, #172]	; 0xac
     306:	2255      	movs	r2, #85	; 0x55
     308:	4619      	mov	r1, r3
     30a:	f8c3 20ac 	str.w	r2, [r3, #172]	; 0xac
     30e:	f8d1 20a8 	ldr.w	r2, [r1, #168]	; 0xa8
     312:	f44f 4340 	mov.w	r3, #49152	; 0xc000
     316:	f412 7f40 	tst.w	r2, #768	; 0x300
     31a:	f2c4 030f 	movt	r3, #16399	; 0x400f
     31e:	d0f6      	beq.n	30e <SystemInit+0xd6>
     320:	f248 70de 	movw	r0, #34782	; 0x87de
     324:	f2c0 4028 	movt	r0, #1064	; 0x428
     328:	f44f 426d 	mov.w	r2, #60672	; 0xed00
     32c:	f8c3 00c4 	str.w	r0, [r3, #196]	; 0xc4
     330:	2100      	movs	r1, #0
     332:	f2ce 0200 	movt	r2, #57344	; 0xe000
     336:	f243 003a 	movw	r0, #12346	; 0x303a
     33a:	f8c3 11c8 	str.w	r1, [r3, #456]	; 0x1c8
     33e:	6018      	str	r0, [r3, #0]
     340:	6091      	str	r1, [r2, #8]
     342:	bc70      	pop	{r4, r5, r6}
     344:	4770      	bx	lr
     346:	f8d2 31a0 	ldr.w	r3, [r2, #416]	; 0x1a0
     34a:	065c      	lsls	r4, r3, #25
     34c:	d480      	bmi.n	250 <SystemInit+0x18>
     34e:	f8d2 31a0 	ldr.w	r3, [r2, #416]	; 0x1a0
     352:	065c      	lsls	r4, r3, #25
     354:	d5f7      	bpl.n	346 <SystemInit+0x10e>
     356:	e77b      	b.n	250 <SystemInit+0x18>

00000358 <UART_Init>:
     358:	e92d 4ff0 	stmdb	sp!, {r4, r5, r6, r7, r8, r9, sl, fp, lr}
     35c:	2200      	movs	r2, #0
     35e:	f44f 4340 	mov.w	r3, #49152	; 0xc000
     362:	f2c4 0201 	movt	r2, #16385	; 0x4001
     366:	f2c4 0300 	movt	r3, #16384	; 0x4000
     36a:	b085      	sub	sp, #20
     36c:	4290      	cmp	r0, r2
     36e:	bf18      	it	ne
     370:	4298      	cmpne	r0, r3
     372:	4682      	mov	sl, r0
     374:	9102      	str	r1, [sp, #8]
     376:	d00c      	beq.n	392 <UART_Init+0x3a>
     378:	f44f 4240 	mov.w	r2, #49152	; 0xc000
     37c:	f44f 4300 	mov.w	r3, #32768	; 0x8000
     380:	f2c4 0209 	movt	r2, #16393	; 0x4009
     384:	f2c4 0309 	movt	r3, #16393	; 0x4009
     388:	4290      	cmp	r0, r2
     38a:	bf18      	it	ne
     38c:	4298      	cmpne	r0, r3
     38e:	f040 8124 	bne.w	5da <UART_Init+0x282>
     392:	9a02      	ldr	r2, [sp, #8]
     394:	7953      	ldrb	r3, [r2, #5]
     396:	2b03      	cmp	r3, #3
     398:	f200 8115 	bhi.w	5c6 <UART_Init+0x26e>
     39c:	9a02      	ldr	r2, [sp, #8]
     39e:	7993      	ldrb	r3, [r2, #6]
     3a0:	2b01      	cmp	r3, #1
     3a2:	d903      	bls.n	3ac <UART_Init+0x54>
     3a4:	48c1      	ldr	r0, [pc, #772]	; (6ac <UART_Init+0x354>)
     3a6:	21c1      	movs	r1, #193	; 0xc1
     3a8:	f001 f8d2 	bl	1550 <check_failed>
     3ac:	9a02      	ldr	r2, [sp, #8]
     3ae:	7913      	ldrb	r3, [r2, #4]
     3b0:	2b04      	cmp	r3, #4
     3b2:	f200 810d 	bhi.w	5d0 <UART_Init+0x278>
     3b6:	f44f 4340 	mov.w	r3, #49152	; 0xc000
     3ba:	f2c4 0300 	movt	r3, #16384	; 0x4000
     3be:	459a      	cmp	sl, r3
     3c0:	f000 8130 	beq.w	624 <UART_Init+0x2cc>
     3c4:	2300      	movs	r3, #0
     3c6:	f2c4 0301 	movt	r3, #16385	; 0x4001
     3ca:	459a      	cmp	sl, r3
     3cc:	f000 8134 	beq.w	638 <UART_Init+0x2e0>
     3d0:	f44f 4300 	mov.w	r3, #32768	; 0x8000
     3d4:	f2c4 0309 	movt	r3, #16393	; 0x4009
     3d8:	459a      	cmp	sl, r3
     3da:	f000 8169 	beq.w	6b0 <UART_Init+0x358>
     3de:	f44f 4340 	mov.w	r3, #49152	; 0xc000
     3e2:	f2c4 0309 	movt	r3, #16393	; 0x4009
     3e6:	459a      	cmp	sl, r3
     3e8:	f000 8116 	beq.w	618 <UART_Init+0x2c0>
     3ec:	2307      	movs	r3, #7
     3ee:	f88a 3008 	strb.w	r3, [sl, #8]
     3f2:	2300      	movs	r3, #0
     3f4:	f88a 3008 	strb.w	r3, [sl, #8]
     3f8:	f89a 3014 	ldrb.w	r3, [sl, #20]
     3fc:	07da      	lsls	r2, r3, #31
     3fe:	d505      	bpl.n	40c <UART_Init+0xb4>
     400:	f89a 3000 	ldrb.w	r3, [sl]
     404:	f89a 3014 	ldrb.w	r3, [sl, #20]
     408:	07db      	lsls	r3, r3, #31
     40a:	d4f9      	bmi.n	400 <UART_Init+0xa8>
     40c:	2380      	movs	r3, #128	; 0x80
     40e:	f88a 3030 	strb.w	r3, [sl, #48]	; 0x30
     412:	f89a 3014 	ldrb.w	r3, [sl, #20]
     416:	f003 0320 	and.w	r3, r3, #32
     41a:	b2db      	uxtb	r3, r3
     41c:	2b00      	cmp	r3, #0
     41e:	d0f8      	beq.n	412 <UART_Init+0xba>
     420:	f44f 4240 	mov.w	r2, #49152	; 0xc000
     424:	2300      	movs	r3, #0
     426:	f2c4 0209 	movt	r2, #16393	; 0x4009
     42a:	f88a 3030 	strb.w	r3, [sl, #48]	; 0x30
     42e:	4592      	cmp	sl, r2
     430:	f8ca 3004 	str.w	r3, [sl, #4]
     434:	f88a 300c 	strb.w	r3, [sl, #12]
     438:	f8ca 3020 	str.w	r3, [sl, #32]
     43c:	f89a 1014 	ldrb.w	r1, [sl, #20]
     440:	f000 80d0 	beq.w	5e4 <UART_Init+0x28c>
     444:	f44f 4340 	mov.w	r3, #49152	; 0xc000
     448:	f2c4 0300 	movt	r3, #16384	; 0x4000
     44c:	9a02      	ldr	r2, [sp, #8]
     44e:	459a      	cmp	sl, r3
     450:	6814      	ldr	r4, [r2, #0]
     452:	f000 80ec 	beq.w	62e <UART_Init+0x2d6>
     456:	2300      	movs	r3, #0
     458:	f2c4 0301 	movt	r3, #16385	; 0x4001
     45c:	459a      	cmp	sl, r3
     45e:	f000 811f 	beq.w	6a0 <UART_Init+0x348>
     462:	f44f 4300 	mov.w	r3, #32768	; 0x8000
     466:	f2c4 0309 	movt	r3, #16393	; 0x4009
     46a:	459a      	cmp	sl, r3
     46c:	f000 80cf 	beq.w	60e <UART_Init+0x2b6>
     470:	2701      	movs	r7, #1
     472:	fa24 f907 	lsr.w	r9, r4, r7
     476:	2600      	movs	r6, #0
     478:	092b      	lsrs	r3, r5, #4
     47a:	f248 60a0 	movw	r0, #34464	; 0x86a0
     47e:	f8cd a00c 	str.w	sl, [sp, #12]
     482:	9301      	str	r3, [sp, #4]
     484:	469c      	mov	ip, r3
     486:	f367 401f 	bfi	r0, r7, #16, #16
     48a:	46b3      	mov	fp, r6
     48c:	9700      	str	r7, [sp, #0]
     48e:	f64f 78fc 	movw	r8, #65532	; 0xfffc
     492:	46b2      	mov	sl, r6
     494:	2200      	movs	r2, #0
     496:	19d1      	adds	r1, r2, r7
     498:	fbbc f1f1 	udiv	r1, ip, r1
     49c:	fbb1 f3f4 	udiv	r3, r1, r4
     4a0:	fb04 1513 	mls	r5, r4, r3, r1
     4a4:	454d      	cmp	r5, r9
     4a6:	bf88      	it	hi
     4a8:	3301      	addhi	r3, #1
     4aa:	1edd      	subs	r5, r3, #3
     4ac:	4545      	cmp	r5, r8
     4ae:	d80f      	bhi.n	4d0 <UART_Init+0x178>
     4b0:	fbb1 f1f3 	udiv	r1, r1, r3
     4b4:	42a1      	cmp	r1, r4
     4b6:	bf94      	ite	ls
     4b8:	ebc1 0604 	rsbls	r6, r1, r4
     4bc:	ebc4 0601 	rsbhi	r6, r4, r1
     4c0:	4286      	cmp	r6, r0
     4c2:	d205      	bcs.n	4d0 <UART_Init+0x178>
     4c4:	2e00      	cmp	r6, #0
     4c6:	d067      	beq.n	598 <UART_Init+0x240>
     4c8:	4692      	mov	sl, r2
     4ca:	4630      	mov	r0, r6
     4cc:	469b      	mov	fp, r3
     4ce:	9700      	str	r7, [sp, #0]
     4d0:	3201      	adds	r2, #1
     4d2:	2a10      	cmp	r2, #16
     4d4:	d1df      	bne.n	496 <UART_Init+0x13e>
     4d6:	b126      	cbz	r6, 4e2 <UART_Init+0x18a>
     4d8:	3701      	adds	r7, #1
     4da:	9901      	ldr	r1, [sp, #4]
     4dc:	2f10      	cmp	r7, #16
     4de:	448c      	add	ip, r1
     4e0:	d1d8      	bne.n	494 <UART_Init+0x13c>
     4e2:	4652      	mov	r2, sl
     4e4:	9f00      	ldr	r7, [sp, #0]
     4e6:	f8dd a00c 	ldr.w	sl, [sp, #12]
     4ea:	4606      	mov	r6, r0
     4ec:	465b      	mov	r3, fp
     4ee:	f248 511f 	movw	r1, #34079	; 0x851f
     4f2:	eb04 0444 	add.w	r4, r4, r4, lsl #1
     4f6:	f2c5 11eb 	movt	r1, #20971	; 0x51eb
     4fa:	fba1 0104 	umull	r0, r1, r1, r4
     4fe:	ebb6 1f51 	cmp.w	r6, r1, lsr #5
     502:	d254      	bcs.n	5ae <UART_Init+0x256>
     504:	f89a 000c 	ldrb.w	r0, [sl, #12]
     508:	2100      	movs	r1, #0
     50a:	f2c4 0101 	movt	r1, #16385	; 0x4001
     50e:	458a      	cmp	sl, r1
     510:	f040 0080 	orr.w	r0, r0, #128	; 0x80
     514:	f3c3 2107 	ubfx	r1, r3, #8, #8
     518:	b2db      	uxtb	r3, r3
     51a:	f88a 000c 	strb.w	r0, [sl, #12]
     51e:	f88a 1004 	strb.w	r1, [sl, #4]
     522:	f88a 3000 	strb.w	r3, [sl]
     526:	f89a 100c 	ldrb.w	r1, [sl, #12]
     52a:	d064      	beq.n	5f6 <UART_Init+0x29e>
     52c:	f002 030f 	and.w	r3, r2, #15
     530:	ea43 1307 	orr.w	r3, r3, r7, lsl #4
     534:	f001 027f 	and.w	r2, r1, #127	; 0x7f
     538:	b2db      	uxtb	r3, r3
     53a:	f88a 200c 	strb.w	r2, [sl, #12]
     53e:	f88a 3028 	strb.w	r3, [sl, #40]	; 0x28
     542:	f89a 300c 	ldrb.w	r3, [sl, #12]
     546:	f003 03c0 	and.w	r3, r3, #192	; 0xc0
     54a:	9902      	ldr	r1, [sp, #8]
     54c:	794a      	ldrb	r2, [r1, #5]
     54e:	2a01      	cmp	r2, #1
     550:	bf08      	it	eq
     552:	f043 0301 	orreq.w	r3, r3, #1
     556:	d000      	beq.n	55a <UART_Init+0x202>
     558:	d221      	bcs.n	59e <UART_Init+0x246>
     55a:	9802      	ldr	r0, [sp, #8]
     55c:	7902      	ldrb	r2, [r0, #4]
     55e:	b17a      	cbz	r2, 580 <UART_Init+0x228>
     560:	2a03      	cmp	r2, #3
     562:	bf08      	it	eq
     564:	f043 0328 	orreq.w	r3, r3, #40	; 0x28
     568:	d00a      	beq.n	580 <UART_Init+0x228>
     56a:	2a04      	cmp	r2, #4
     56c:	bf08      	it	eq
     56e:	f043 0338 	orreq.w	r3, r3, #56	; 0x38
     572:	d005      	beq.n	580 <UART_Init+0x228>
     574:	2a02      	cmp	r2, #2
     576:	bf14      	ite	ne
     578:	f043 0308 	orrne.w	r3, r3, #8
     57c:	f043 0318 	orreq.w	r3, r3, #24
     580:	9902      	ldr	r1, [sp, #8]
     582:	798a      	ldrb	r2, [r1, #6]
     584:	2a01      	cmp	r2, #1
     586:	bf08      	it	eq
     588:	f043 0304 	orreq.w	r3, r3, #4
     58c:	b2db      	uxtb	r3, r3
     58e:	f88a 300c 	strb.w	r3, [sl, #12]
     592:	b005      	add	sp, #20
     594:	e8bd 8ff0 	ldmia.w	sp!, {r4, r5, r6, r7, r8, r9, sl, fp, pc}
     598:	f8dd a00c 	ldr.w	sl, [sp, #12]
     59c:	e7a7      	b.n	4ee <UART_Init+0x196>
     59e:	2a02      	cmp	r2, #2
     5a0:	bf18      	it	ne
     5a2:	f043 0303 	orrne.w	r3, r3, #3
     5a6:	d1d8      	bne.n	55a <UART_Init+0x202>
     5a8:	f043 0302 	orr.w	r3, r3, #2
     5ac:	e7d5      	b.n	55a <UART_Init+0x202>
     5ae:	2300      	movs	r3, #0
     5b0:	f2c4 0301 	movt	r3, #16385	; 0x4001
     5b4:	459a      	cmp	sl, r3
     5b6:	d1c4      	bne.n	542 <UART_Init+0x1ea>
     5b8:	2300      	movs	r3, #0
     5ba:	f2c4 0301 	movt	r3, #16385	; 0x4001
     5be:	7b1b      	ldrb	r3, [r3, #12]
     5c0:	f003 03c0 	and.w	r3, r3, #192	; 0xc0
     5c4:	e7c1      	b.n	54a <UART_Init+0x1f2>
     5c6:	4839      	ldr	r0, [pc, #228]	; (6ac <UART_Init+0x354>)
     5c8:	21c0      	movs	r1, #192	; 0xc0
     5ca:	f000 ffc1 	bl	1550 <check_failed>
     5ce:	e6e5      	b.n	39c <UART_Init+0x44>
     5d0:	4836      	ldr	r0, [pc, #216]	; (6ac <UART_Init+0x354>)
     5d2:	21c2      	movs	r1, #194	; 0xc2
     5d4:	f000 ffbc 	bl	1550 <check_failed>
     5d8:	e6ed      	b.n	3b6 <UART_Init+0x5e>
     5da:	4834      	ldr	r0, [pc, #208]	; (6ac <UART_Init+0x354>)
     5dc:	21bf      	movs	r1, #191	; 0xbf
     5de:	f000 ffb7 	bl	1550 <check_failed>
     5e2:	e6d6      	b.n	392 <UART_Init+0x3a>
     5e4:	f88a 3024 	strb.w	r3, [sl, #36]	; 0x24
     5e8:	9b02      	ldr	r3, [sp, #8]
     5ea:	2032      	movs	r0, #50	; 0x32
     5ec:	681c      	ldr	r4, [r3, #0]
     5ee:	f7ff fd6d 	bl	cc <CLKPWR_GetPCLK>
     5f2:	4605      	mov	r5, r0
     5f4:	e73c      	b.n	470 <UART_Init+0x118>
     5f6:	013b      	lsls	r3, r7, #4
     5f8:	b2db      	uxtb	r3, r3
     5fa:	f002 020f 	and.w	r2, r2, #15
     5fe:	f001 017f 	and.w	r1, r1, #127	; 0x7f
     602:	4313      	orrs	r3, r2
     604:	f88a 100c 	strb.w	r1, [sl, #12]
     608:	f8ca 3028 	str.w	r3, [sl, #40]	; 0x28
     60c:	e7d4      	b.n	5b8 <UART_Init+0x260>
     60e:	2030      	movs	r0, #48	; 0x30
     610:	f7ff fd5c 	bl	cc <CLKPWR_GetPCLK>
     614:	4605      	mov	r5, r0
     616:	e72b      	b.n	470 <UART_Init+0x118>
     618:	f04f 7000 	mov.w	r0, #33554432	; 0x2000000
     61c:	2101      	movs	r1, #1
     61e:	f7ff fd75 	bl	10c <CLKPWR_ConfigPPWR>
     622:	e6e3      	b.n	3ec <UART_Init+0x94>
     624:	2008      	movs	r0, #8
     626:	2101      	movs	r1, #1
     628:	f7ff fd70 	bl	10c <CLKPWR_ConfigPPWR>
     62c:	e6de      	b.n	3ec <UART_Init+0x94>
     62e:	2006      	movs	r0, #6
     630:	f7ff fd4c 	bl	cc <CLKPWR_GetPCLK>
     634:	4605      	mov	r5, r0
     636:	e71b      	b.n	470 <UART_Init+0x118>
     638:	2010      	movs	r0, #16
     63a:	2101      	movs	r1, #1
     63c:	f7ff fd66 	bl	10c <CLKPWR_ConfigPPWR>
     640:	2307      	movs	r3, #7
     642:	f88a 3008 	strb.w	r3, [sl, #8]
     646:	2300      	movs	r3, #0
     648:	f88a 3008 	strb.w	r3, [sl, #8]
     64c:	f89a 3014 	ldrb.w	r3, [sl, #20]
     650:	07d8      	lsls	r0, r3, #31
     652:	bf48      	it	mi
     654:	4653      	movmi	r3, sl
     656:	d503      	bpl.n	660 <UART_Init+0x308>
     658:	781a      	ldrb	r2, [r3, #0]
     65a:	7d1a      	ldrb	r2, [r3, #20]
     65c:	07d1      	lsls	r1, r2, #31
     65e:	d4fb      	bmi.n	658 <UART_Init+0x300>
     660:	2100      	movs	r1, #0
     662:	f2c4 0101 	movt	r1, #16385	; 0x4001
     666:	2380      	movs	r3, #128	; 0x80
     668:	f881 3030 	strb.w	r3, [r1, #48]	; 0x30
     66c:	7d0a      	ldrb	r2, [r1, #20]
     66e:	2300      	movs	r3, #0
     670:	f002 0220 	and.w	r2, r2, #32
     674:	b2d2      	uxtb	r2, r2
     676:	f2c4 0301 	movt	r3, #16385	; 0x4001
     67a:	2a00      	cmp	r2, #0
     67c:	d0f6      	beq.n	66c <UART_Init+0x314>
     67e:	2200      	movs	r2, #0
     680:	f883 2030 	strb.w	r2, [r3, #48]	; 0x30
     684:	605a      	str	r2, [r3, #4]
     686:	731a      	strb	r2, [r3, #12]
     688:	621a      	str	r2, [r3, #32]
     68a:	741a      	strb	r2, [r3, #16]
     68c:	f883 204c 	strb.w	r2, [r3, #76]	; 0x4c
     690:	f883 2054 	strb.w	r2, [r3, #84]	; 0x54
     694:	f883 2050 	strb.w	r2, [r3, #80]	; 0x50
     698:	7e1a      	ldrb	r2, [r3, #24]
     69a:	9a02      	ldr	r2, [sp, #8]
     69c:	7d1b      	ldrb	r3, [r3, #20]
     69e:	6814      	ldr	r4, [r2, #0]
     6a0:	2008      	movs	r0, #8
     6a2:	f7ff fd13 	bl	cc <CLKPWR_GetPCLK>
     6a6:	4605      	mov	r5, r0
     6a8:	e6e2      	b.n	470 <UART_Init+0x118>
     6aa:	bf00      	nop
     6ac:	000020f0 	.word	0x000020f0
     6b0:	f04f 7080 	mov.w	r0, #16777216	; 0x1000000
     6b4:	2101      	movs	r1, #1
     6b6:	f7ff fd29 	bl	10c <CLKPWR_ConfigPPWR>
     6ba:	e697      	b.n	3ec <UART_Init+0x94>

000006bc <UART_ConfigStructInit>:
     6bc:	f44f 5216 	mov.w	r2, #9600	; 0x2580
     6c0:	2300      	movs	r3, #0
     6c2:	6002      	str	r2, [r0, #0]
     6c4:	2203      	movs	r2, #3
     6c6:	7142      	strb	r2, [r0, #5]
     6c8:	7103      	strb	r3, [r0, #4]
     6ca:	7183      	strb	r3, [r0, #6]
     6cc:	4770      	bx	lr
     6ce:	bf00      	nop

000006d0 <UART_SendByte>:
     6d0:	b538      	push	{r3, r4, r5, lr}
     6d2:	f44f 4240 	mov.w	r2, #49152	; 0xc000
     6d6:	2300      	movs	r3, #0
     6d8:	f2c4 0301 	movt	r3, #16385	; 0x4001
     6dc:	f2c4 0200 	movt	r2, #16384	; 0x4000
     6e0:	4298      	cmp	r0, r3
     6e2:	bf18      	it	ne
     6e4:	4290      	cmpne	r0, r2
     6e6:	4604      	mov	r4, r0
     6e8:	460d      	mov	r5, r1
     6ea:	d00b      	beq.n	704 <UART_SendByte+0x34>
     6ec:	f44f 4240 	mov.w	r2, #49152	; 0xc000
     6f0:	f44f 4300 	mov.w	r3, #32768	; 0x8000
     6f4:	f2c4 0209 	movt	r2, #16393	; 0x4009
     6f8:	f2c4 0309 	movt	r3, #16393	; 0x4009
     6fc:	4290      	cmp	r0, r2
     6fe:	bf18      	it	ne
     700:	4298      	cmpne	r0, r3
     702:	d101      	bne.n	708 <UART_SendByte+0x38>
     704:	7025      	strb	r5, [r4, #0]
     706:	bd38      	pop	{r3, r4, r5, pc}
     708:	4803      	ldr	r0, [pc, #12]	; (718 <UART_SendByte+0x48>)
     70a:	f240 11cf 	movw	r1, #463	; 0x1cf
     70e:	f000 ff1f 	bl	1550 <check_failed>
     712:	7025      	strb	r5, [r4, #0]
     714:	bd38      	pop	{r3, r4, r5, pc}
     716:	bf00      	nop
     718:	000020f0 	.word	0x000020f0

0000071c <UART_Send.part.0>:
     71c:	e92d 41f0 	stmdb	sp!, {r4, r5, r6, r7, r8, lr}
     720:	4605      	mov	r5, r0
     722:	4616      	mov	r6, r2
     724:	2000      	movs	r0, #0
     726:	2a00      	cmp	r2, #0
     728:	d030      	beq.n	78c <UART_Send.part.0+0x70>
     72a:	7d2b      	ldrb	r3, [r5, #20]
     72c:	f003 0320 	and.w	r3, r3, #32
     730:	b2db      	uxtb	r3, r3
     732:	b95b      	cbnz	r3, 74c <UART_Send.part.0+0x30>
     734:	f04f 33ff 	mov.w	r3, #4294967295
     738:	e000      	b.n	73c <UART_Send.part.0+0x20>
     73a:	b153      	cbz	r3, 752 <UART_Send.part.0+0x36>
     73c:	7d2c      	ldrb	r4, [r5, #20]
     73e:	3b01      	subs	r3, #1
     740:	f004 0420 	and.w	r4, r4, #32
     744:	b2e4      	uxtb	r4, r4
     746:	2c00      	cmp	r4, #0
     748:	d0f7      	beq.n	73a <UART_Send.part.0+0x1e>
     74a:	b103      	cbz	r3, 74e <UART_Send.part.0+0x32>
     74c:	b91e      	cbnz	r6, 756 <UART_Send.part.0+0x3a>
     74e:	e8bd 81f0 	ldmia.w	sp!, {r4, r5, r6, r7, r8, pc}
     752:	e8bd 81f0 	ldmia.w	sp!, {r4, r5, r6, r7, r8, pc}
     756:	460c      	mov	r4, r1
     758:	2710      	movs	r7, #16
     75a:	ebc1 0800 	rsb	r8, r1, r0
     75e:	f814 1b01 	ldrb.w	r1, [r4], #1
     762:	4628      	mov	r0, r5
     764:	f7ff ffb4 	bl	6d0 <UART_SendByte>
     768:	3e01      	subs	r6, #1
     76a:	bf0c      	ite	eq
     76c:	2300      	moveq	r3, #0
     76e:	2301      	movne	r3, #1
     770:	3f01      	subs	r7, #1
     772:	bf0c      	ite	eq
     774:	2300      	moveq	r3, #0
     776:	f003 0301 	andne.w	r3, r3, #1
     77a:	4621      	mov	r1, r4
     77c:	eb08 0004 	add.w	r0, r8, r4
     780:	2b00      	cmp	r3, #0
     782:	d1ec      	bne.n	75e <UART_Send.part.0+0x42>
     784:	2e00      	cmp	r6, #0
     786:	d1d0      	bne.n	72a <UART_Send.part.0+0xe>
     788:	e8bd 81f0 	ldmia.w	sp!, {r4, r5, r6, r7, r8, pc}
     78c:	4610      	mov	r0, r2
     78e:	e7de      	b.n	74e <UART_Send.part.0+0x32>

00000790 <UART_Send>:
     790:	2b01      	cmp	r3, #1
     792:	e92d 41f0 	stmdb	sp!, {r4, r5, r6, r7, r8, lr}
     796:	4605      	mov	r5, r0
     798:	4688      	mov	r8, r1
     79a:	4617      	mov	r7, r2
     79c:	d024      	beq.n	7e8 <UART_Send+0x58>
     79e:	2a00      	cmp	r2, #0
     7a0:	d026      	beq.n	7f0 <UART_Send+0x60>
     7a2:	7d06      	ldrb	r6, [r0, #20]
     7a4:	f006 0620 	and.w	r6, r6, #32
     7a8:	b2f6      	uxtb	r6, r6
     7aa:	b1d6      	cbz	r6, 7e2 <UART_Send+0x52>
     7ac:	2410      	movs	r4, #16
     7ae:	2600      	movs	r6, #0
     7b0:	f818 1006 	ldrb.w	r1, [r8, r6]
     7b4:	4628      	mov	r0, r5
     7b6:	f7ff ff8b 	bl	6d0 <UART_SendByte>
     7ba:	3f01      	subs	r7, #1
     7bc:	bf0c      	ite	eq
     7be:	2300      	moveq	r3, #0
     7c0:	2301      	movne	r3, #1
     7c2:	3c01      	subs	r4, #1
     7c4:	bf0c      	ite	eq
     7c6:	2200      	moveq	r2, #0
     7c8:	f003 0201 	andne.w	r2, r3, #1
     7cc:	3601      	adds	r6, #1
     7ce:	2a00      	cmp	r2, #0
     7d0:	d1ee      	bne.n	7b0 <UART_Send+0x20>
     7d2:	b133      	cbz	r3, 7e2 <UART_Send+0x52>
     7d4:	7d2b      	ldrb	r3, [r5, #20]
     7d6:	2410      	movs	r4, #16
     7d8:	f003 0320 	and.w	r3, r3, #32
     7dc:	b2db      	uxtb	r3, r3
     7de:	2b00      	cmp	r3, #0
     7e0:	d1e6      	bne.n	7b0 <UART_Send+0x20>
     7e2:	4630      	mov	r0, r6
     7e4:	e8bd 81f0 	ldmia.w	sp!, {r4, r5, r6, r7, r8, pc}
     7e8:	e8bd 41f0 	ldmia.w	sp!, {r4, r5, r6, r7, r8, lr}
     7ec:	f7ff bf96 	b.w	71c <UART_Send.part.0>
     7f0:	4616      	mov	r6, r2
     7f2:	e7f6      	b.n	7e2 <UART_Send+0x52>

000007f4 <UART_FIFOConfig>:
     7f4:	b538      	push	{r3, r4, r5, lr}
     7f6:	2200      	movs	r2, #0
     7f8:	f44f 4340 	mov.w	r3, #49152	; 0xc000
     7fc:	f2c4 0201 	movt	r2, #16385	; 0x4001
     800:	f2c4 0300 	movt	r3, #16384	; 0x4000
     804:	4290      	cmp	r0, r2
     806:	bf18      	it	ne
     808:	4298      	cmpne	r0, r3
     80a:	4605      	mov	r5, r0
     80c:	460c      	mov	r4, r1
     80e:	d00b      	beq.n	828 <UART_FIFOConfig+0x34>
     810:	f44f 4240 	mov.w	r2, #49152	; 0xc000
     814:	f44f 4300 	mov.w	r3, #32768	; 0x8000
     818:	f2c4 0209 	movt	r2, #16393	; 0x4009
     81c:	f2c4 0309 	movt	r3, #16393	; 0x4009
     820:	4290      	cmp	r0, r2
     822:	bf18      	it	ne
     824:	4298      	cmpne	r0, r3
     826:	d13b      	bne.n	8a0 <UART_FIFOConfig+0xac>
     828:	78e3      	ldrb	r3, [r4, #3]
     82a:	2b03      	cmp	r3, #3
     82c:	d832      	bhi.n	894 <UART_FIFOConfig+0xa0>
     82e:	78a3      	ldrb	r3, [r4, #2]
     830:	2b01      	cmp	r3, #1
     832:	d904      	bls.n	83e <UART_FIFOConfig+0x4a>
     834:	481d      	ldr	r0, [pc, #116]	; (8ac <UART_FIFOConfig+0xb8>)
     836:	f240 312e 	movw	r1, #814	; 0x32e
     83a:	f000 fe89 	bl	1550 <check_failed>
     83e:	7823      	ldrb	r3, [r4, #0]
     840:	2b01      	cmp	r3, #1
     842:	d904      	bls.n	84e <UART_FIFOConfig+0x5a>
     844:	4819      	ldr	r0, [pc, #100]	; (8ac <UART_FIFOConfig+0xb8>)
     846:	f240 312f 	movw	r1, #815	; 0x32f
     84a:	f000 fe81 	bl	1550 <check_failed>
     84e:	7863      	ldrb	r3, [r4, #1]
     850:	2b01      	cmp	r3, #1
     852:	bf98      	it	ls
     854:	461a      	movls	r2, r3
     856:	d905      	bls.n	864 <UART_FIFOConfig+0x70>
     858:	4814      	ldr	r0, [pc, #80]	; (8ac <UART_FIFOConfig+0xb8>)
     85a:	f44f 714c 	mov.w	r1, #816	; 0x330
     85e:	f000 fe77 	bl	1550 <check_failed>
     862:	7862      	ldrb	r2, [r4, #1]
     864:	78e3      	ldrb	r3, [r4, #3]
     866:	2b02      	cmp	r3, #2
     868:	bf9a      	itte	ls
     86a:	4911      	ldrls	r1, [pc, #68]	; (8b0 <UART_FIFOConfig+0xbc>)
     86c:	5ccb      	ldrbls	r3, [r1, r3]
     86e:	23c1      	movhi	r3, #193	; 0xc1
     870:	2a01      	cmp	r2, #1
     872:	7822      	ldrb	r2, [r4, #0]
     874:	bf08      	it	eq
     876:	f043 0304 	orreq.w	r3, r3, #4
     87a:	2a01      	cmp	r2, #1
     87c:	78a2      	ldrb	r2, [r4, #2]
     87e:	bf08      	it	eq
     880:	f043 0302 	orreq.w	r3, r3, #2
     884:	2a01      	cmp	r2, #1
     886:	bf08      	it	eq
     888:	f043 0308 	orreq.w	r3, r3, #8
     88c:	f003 03cf 	and.w	r3, r3, #207	; 0xcf
     890:	722b      	strb	r3, [r5, #8]
     892:	bd38      	pop	{r3, r4, r5, pc}
     894:	4805      	ldr	r0, [pc, #20]	; (8ac <UART_FIFOConfig+0xb8>)
     896:	f240 312d 	movw	r1, #813	; 0x32d
     89a:	f000 fe59 	bl	1550 <check_failed>
     89e:	e7c6      	b.n	82e <UART_FIFOConfig+0x3a>
     8a0:	4802      	ldr	r0, [pc, #8]	; (8ac <UART_FIFOConfig+0xb8>)
     8a2:	f44f 714b 	mov.w	r1, #812	; 0x32c
     8a6:	f000 fe53 	bl	1550 <check_failed>
     8aa:	e7bd      	b.n	828 <UART_FIFOConfig+0x34>
     8ac:	000020f0 	.word	0x000020f0
     8b0:	000020e8 	.word	0x000020e8

000008b4 <UART_FIFOConfigStructInit>:
     8b4:	2200      	movs	r2, #0
     8b6:	2301      	movs	r3, #1
     8b8:	7082      	strb	r2, [r0, #2]
     8ba:	70c2      	strb	r2, [r0, #3]
     8bc:	7003      	strb	r3, [r0, #0]
     8be:	7043      	strb	r3, [r0, #1]
     8c0:	4770      	bx	lr
     8c2:	bf00      	nop

000008c4 <UART_TxCmd>:
     8c4:	b538      	push	{r3, r4, r5, lr}
     8c6:	2200      	movs	r2, #0
     8c8:	f44f 4340 	mov.w	r3, #49152	; 0xc000
     8cc:	f2c4 0201 	movt	r2, #16385	; 0x4001
     8d0:	f2c4 0300 	movt	r3, #16384	; 0x4000
     8d4:	4290      	cmp	r0, r2
     8d6:	bf18      	it	ne
     8d8:	4298      	cmpne	r0, r3
     8da:	4604      	mov	r4, r0
     8dc:	460d      	mov	r5, r1
     8de:	d00b      	beq.n	8f8 <UART_TxCmd+0x34>
     8e0:	f44f 4240 	mov.w	r2, #49152	; 0xc000
     8e4:	f44f 4300 	mov.w	r3, #32768	; 0x8000
     8e8:	f2c4 0209 	movt	r2, #16393	; 0x4009
     8ec:	f2c4 0309 	movt	r3, #16393	; 0x4009
     8f0:	4290      	cmp	r0, r2
     8f2:	bf18      	it	ne
     8f4:	4298      	cmpne	r0, r3
     8f6:	d115      	bne.n	924 <UART_TxCmd+0x60>
     8f8:	2d01      	cmp	r5, #1
     8fa:	d90b      	bls.n	914 <UART_TxCmd+0x50>
     8fc:	480c      	ldr	r0, [pc, #48]	; (930 <UART_TxCmd+0x6c>)
     8fe:	f44f 7178 	mov.w	r1, #992	; 0x3e0
     902:	f000 fe25 	bl	1550 <check_failed>
     906:	f894 3030 	ldrb.w	r3, [r4, #48]	; 0x30
     90a:	f04f 0300 	mov.w	r3, #0
     90e:	f884 3030 	strb.w	r3, [r4, #48]	; 0x30
     912:	bd38      	pop	{r3, r4, r5, pc}
     914:	d1f7      	bne.n	906 <UART_TxCmd+0x42>
     916:	f894 3030 	ldrb.w	r3, [r4, #48]	; 0x30
     91a:	f043 0380 	orr.w	r3, r3, #128	; 0x80
     91e:	f884 3030 	strb.w	r3, [r4, #48]	; 0x30
     922:	bd38      	pop	{r3, r4, r5, pc}
     924:	4802      	ldr	r0, [pc, #8]	; (930 <UART_TxCmd+0x6c>)
     926:	f240 31df 	movw	r1, #991	; 0x3df
     92a:	f000 fe11 	bl	1550 <check_failed>
     92e:	e7e3      	b.n	8f8 <UART_TxCmd+0x34>
     930:	000020f0 	.word	0x000020f0

00000934 <I2S_Init>:
     934:	b508      	push	{r3, lr}
     936:	f44f 4300 	mov.w	r3, #32768	; 0x8000
     93a:	f2c4 030a 	movt	r3, #16394	; 0x400a
     93e:	4298      	cmp	r0, r3
     940:	d003      	beq.n	94a <I2S_Init+0x16>
     942:	4808      	ldr	r0, [pc, #32]	; (964 <I2S_Init+0x30>)
     944:	2173      	movs	r1, #115	; 0x73
     946:	f000 fe03 	bl	1550 <check_failed>
     94a:	f04f 6000 	mov.w	r0, #134217728	; 0x8000000
     94e:	2101      	movs	r1, #1
     950:	f7ff fbdc 	bl	10c <CLKPWR_ConfigPPWR>
     954:	f44f 4300 	mov.w	r3, #32768	; 0x8000
     958:	f2c4 030a 	movt	r3, #16394	; 0x400a
     95c:	2200      	movs	r2, #0
     95e:	601a      	str	r2, [r3, #0]
     960:	605a      	str	r2, [r3, #4]
     962:	bd08      	pop	{r3, pc}
     964:	00002144 	.word	0x00002144

00000968 <I2S_Config>:
     968:	f44f 4300 	mov.w	r3, #32768	; 0x8000
     96c:	f2c4 030a 	movt	r3, #16394	; 0x400a
     970:	4298      	cmp	r0, r3
     972:	b570      	push	{r4, r5, r6, lr}
     974:	460d      	mov	r5, r1
     976:	4614      	mov	r4, r2
     978:	d003      	beq.n	982 <I2S_Config+0x1a>
     97a:	4825      	ldr	r0, [pc, #148]	; (a10 <I2S_Config+0xa8>)
     97c:	218b      	movs	r1, #139	; 0x8b
     97e:	f000 fde7 	bl	1550 <check_failed>
     982:	7823      	ldrb	r3, [r4, #0]
     984:	2b03      	cmp	r3, #3
     986:	bf18      	it	ne
     988:	2b01      	cmpne	r3, #1
     98a:	d83c      	bhi.n	a06 <I2S_Config+0x9e>
     98c:	7863      	ldrb	r3, [r4, #1]
     98e:	2b01      	cmp	r3, #1
     990:	d903      	bls.n	99a <I2S_Config+0x32>
     992:	481f      	ldr	r0, [pc, #124]	; (a10 <I2S_Config+0xa8>)
     994:	218e      	movs	r1, #142	; 0x8e
     996:	f000 fddb 	bl	1550 <check_failed>
     99a:	78a3      	ldrb	r3, [r4, #2]
     99c:	2b01      	cmp	r3, #1
     99e:	d903      	bls.n	9a8 <I2S_Config+0x40>
     9a0:	481b      	ldr	r0, [pc, #108]	; (a10 <I2S_Config+0xa8>)
     9a2:	218f      	movs	r1, #143	; 0x8f
     9a4:	f000 fdd4 	bl	1550 <check_failed>
     9a8:	78e3      	ldrb	r3, [r4, #3]
     9aa:	2b01      	cmp	r3, #1
     9ac:	d903      	bls.n	9b6 <I2S_Config+0x4e>
     9ae:	4818      	ldr	r0, [pc, #96]	; (a10 <I2S_Config+0xa8>)
     9b0:	2190      	movs	r1, #144	; 0x90
     9b2:	f000 fdcd 	bl	1550 <check_failed>
     9b6:	7923      	ldrb	r3, [r4, #4]
     9b8:	2b01      	cmp	r3, #1
     9ba:	d903      	bls.n	9c4 <I2S_Config+0x5c>
     9bc:	4814      	ldr	r0, [pc, #80]	; (a10 <I2S_Config+0xa8>)
     9be:	2191      	movs	r1, #145	; 0x91
     9c0:	f000 fdc6 	bl	1550 <check_failed>
     9c4:	7963      	ldrb	r3, [r4, #5]
     9c6:	2b01      	cmp	r3, #1
     9c8:	d903      	bls.n	9d2 <I2S_Config+0x6a>
     9ca:	4811      	ldr	r0, [pc, #68]	; (a10 <I2S_Config+0xa8>)
     9cc:	2192      	movs	r1, #146	; 0x92
     9ce:	f000 fdbf 	bl	1550 <check_failed>
     9d2:	7861      	ldrb	r1, [r4, #1]
     9d4:	78a6      	ldrb	r6, [r4, #2]
     9d6:	7920      	ldrb	r0, [r4, #4]
     9d8:	7823      	ldrb	r3, [r4, #0]
     9da:	78e2      	ldrb	r2, [r4, #3]
     9dc:	0089      	lsls	r1, r1, #2
     9de:	0140      	lsls	r0, r0, #5
     9e0:	ea41 01c6 	orr.w	r1, r1, r6, lsl #3
     9e4:	4319      	orrs	r1, r3
     9e6:	ea40 1202 	orr.w	r2, r0, r2, lsl #4
     9ea:	025b      	lsls	r3, r3, #9
     9ec:	430a      	orrs	r2, r1
     9ee:	f503 73e0 	add.w	r3, r3, #448	; 0x1c0
     9f2:	4313      	orrs	r3, r2
     9f4:	f44f 4200 	mov.w	r2, #32768	; 0x8000
     9f8:	f2c4 020a 	movt	r2, #16394	; 0x400a
     9fc:	2d01      	cmp	r5, #1
     9fe:	bf0c      	ite	eq
     a00:	6053      	streq	r3, [r2, #4]
     a02:	6013      	strne	r3, [r2, #0]
     a04:	bd70      	pop	{r4, r5, r6, pc}
     a06:	4802      	ldr	r0, [pc, #8]	; (a10 <I2S_Config+0xa8>)
     a08:	218d      	movs	r1, #141	; 0x8d
     a0a:	f000 fda1 	bl	1550 <check_failed>
     a0e:	e7bd      	b.n	98c <I2S_Config+0x24>
     a10:	00002144 	.word	0x00002144

00000a14 <I2S_Start>:
     a14:	6803      	ldr	r3, [r0, #0]
     a16:	f023 0310 	bic.w	r3, r3, #16
     a1a:	6003      	str	r3, [r0, #0]
     a1c:	6843      	ldr	r3, [r0, #4]
     a1e:	f023 0310 	bic.w	r3, r3, #16
     a22:	6043      	str	r3, [r0, #4]
     a24:	6803      	ldr	r3, [r0, #0]
     a26:	f023 0308 	bic.w	r3, r3, #8
     a2a:	6003      	str	r3, [r0, #0]
     a2c:	6843      	ldr	r3, [r0, #4]
     a2e:	f023 0308 	bic.w	r3, r3, #8
     a32:	6043      	str	r3, [r0, #4]
     a34:	6803      	ldr	r3, [r0, #0]
     a36:	f423 4300 	bic.w	r3, r3, #32768	; 0x8000
     a3a:	6003      	str	r3, [r0, #0]
     a3c:	4770      	bx	lr
     a3e:	bf00      	nop

00000a40 <I2S_Stop>:
     a40:	b538      	push	{r3, r4, r5, lr}
     a42:	f44f 4300 	mov.w	r3, #32768	; 0x8000
     a46:	f2c4 030a 	movt	r3, #16394	; 0x400a
     a4a:	4298      	cmp	r0, r3
     a4c:	4604      	mov	r4, r0
     a4e:	460d      	mov	r5, r1
     a50:	d004      	beq.n	a5c <I2S_Stop+0x1c>
     a52:	4812      	ldr	r0, [pc, #72]	; (a9c <I2S_Stop+0x5c>)
     a54:	f240 111f 	movw	r1, #287	; 0x11f
     a58:	f000 fd7a 	bl	1550 <check_failed>
     a5c:	2d01      	cmp	r5, #1
     a5e:	d90d      	bls.n	a7c <I2S_Stop+0x3c>
     a60:	480e      	ldr	r0, [pc, #56]	; (a9c <I2S_Stop+0x5c>)
     a62:	f44f 7190 	mov.w	r1, #288	; 0x120
     a66:	f000 fd73 	bl	1550 <check_failed>
     a6a:	6863      	ldr	r3, [r4, #4]
     a6c:	f043 0308 	orr.w	r3, r3, #8
     a70:	6063      	str	r3, [r4, #4]
     a72:	6863      	ldr	r3, [r4, #4]
     a74:	f043 0310 	orr.w	r3, r3, #16
     a78:	6063      	str	r3, [r4, #4]
     a7a:	bd38      	pop	{r3, r4, r5, pc}
     a7c:	2d00      	cmp	r5, #0
     a7e:	d1f4      	bne.n	a6a <I2S_Stop+0x2a>
     a80:	6823      	ldr	r3, [r4, #0]
     a82:	f423 4300 	bic.w	r3, r3, #32768	; 0x8000
     a86:	6023      	str	r3, [r4, #0]
     a88:	6823      	ldr	r3, [r4, #0]
     a8a:	f043 0308 	orr.w	r3, r3, #8
     a8e:	6023      	str	r3, [r4, #0]
     a90:	6823      	ldr	r3, [r4, #0]
     a92:	f043 0310 	orr.w	r3, r3, #16
     a96:	6023      	str	r3, [r4, #0]
     a98:	bd38      	pop	{r3, r4, r5, pc}
     a9a:	bf00      	nop
     a9c:	00002144 	.word	0x00002144

00000aa0 <I2S_FreqConfig>:
     aa0:	f44f 4300 	mov.w	r3, #32768	; 0x8000
     aa4:	f2c4 030a 	movt	r3, #16394	; 0x400a
     aa8:	4298      	cmp	r0, r3
     aaa:	e92d 47f0 	stmdb	sp!, {r4, r5, r6, r7, r8, r9, sl, lr}
     aae:	4607      	mov	r7, r0
     ab0:	460c      	mov	r4, r1
     ab2:	4690      	mov	r8, r2
     ab4:	d004      	beq.n	ac0 <I2S_FreqConfig+0x20>
     ab6:	4855      	ldr	r0, [pc, #340]	; (c0c <I2S_FreqConfig+0x16c>)
     ab8:	f240 1149 	movw	r1, #329	; 0x149
     abc:	f000 fd48 	bl	1550 <check_failed>
     ac0:	f44f 5362 	mov.w	r3, #14464	; 0x3880
     ac4:	f5a4 527a 	sub.w	r2, r4, #16000	; 0x3e80
     ac8:	f2c0 0301 	movt	r3, #1
     acc:	429a      	cmp	r2, r3
     ace:	d87e      	bhi.n	bce <I2S_FreqConfig+0x12e>
     ad0:	f1b8 0f01 	cmp.w	r8, #1
     ad4:	d957      	bls.n	b86 <I2S_FreqConfig+0xe6>
     ad6:	484d      	ldr	r0, [pc, #308]	; (c0c <I2S_FreqConfig+0x16c>)
     ad8:	f240 114b 	movw	r1, #331	; 0x14b
     adc:	f000 fd38 	bl	1550 <check_failed>
     ae0:	2036      	movs	r0, #54	; 0x36
     ae2:	f7ff faf3 	bl	cc <CLKPWR_GetPCLK>
     ae6:	4681      	mov	r9, r0
     ae8:	f44f 4300 	mov.w	r3, #32768	; 0x8000
     aec:	f2c4 030a 	movt	r3, #16394	; 0x400a
     af0:	429f      	cmp	r7, r3
     af2:	d072      	beq.n	bda <I2S_FreqConfig+0x13a>
     af4:	2158      	movs	r1, #88	; 0x58
     af6:	4845      	ldr	r0, [pc, #276]	; (c0c <I2S_FreqConfig+0x16c>)
     af8:	f000 fd2a 	bl	1550 <check_failed>
     afc:	213b      	movs	r1, #59	; 0x3b
     afe:	4843      	ldr	r0, [pc, #268]	; (c0c <I2S_FreqConfig+0x16c>)
     b00:	687b      	ldr	r3, [r7, #4]
     b02:	f000 fd25 	bl	1550 <check_failed>
     b06:	687b      	ldr	r3, [r7, #4]
     b08:	f003 0303 	and.w	r3, r3, #3
     b0c:	2b01      	cmp	r3, #1
     b0e:	d96a      	bls.n	be6 <I2S_FreqConfig+0x146>
     b10:	f04f 0a40 	mov.w	sl, #64	; 0x40
     b14:	233f      	movs	r3, #63	; 0x3f
     b16:	62fb      	str	r3, [r7, #44]	; 0x2c
     b18:	0064      	lsls	r4, r4, #1
     b1a:	fb0a fa04 	mul.w	sl, sl, r4
     b1e:	464a      	mov	r2, r9
     b20:	2300      	movs	r3, #0
     b22:	ea4f 400a 	mov.w	r0, sl, lsl #16
     b26:	ea4f 411a 	mov.w	r1, sl, lsr #16
     b2a:	f000 fde7 	bl	16fc <__aeabi_uldivmod>
     b2e:	ebc0 2300 	rsb	r3, r0, r0, lsl #8
     b32:	b29b      	uxth	r3, r3
     b34:	4242      	negs	r2, r0
     b36:	425d      	negs	r5, r3
     b38:	b292      	uxth	r2, r2
     b3a:	b2ad      	uxth	r5, r5
     b3c:	f64f 70ff 	movw	r0, #65535	; 0xffff
     b40:	21ff      	movs	r1, #255	; 0xff
     b42:	e005      	b.n	b50 <I2S_FreqConfig+0xb0>
     b44:	4284      	cmp	r4, r0
     b46:	bf3c      	itt	cc
     b48:	b2ce      	uxtbcc	r6, r1
     b4a:	4620      	movcc	r0, r4
     b4c:	3901      	subs	r1, #1
     b4e:	d00b      	beq.n	b68 <I2S_FreqConfig+0xc8>
     b50:	f5b3 4f00 	cmp.w	r3, #32768	; 0x8000
     b54:	bf8c      	ite	hi
     b56:	462c      	movhi	r4, r5
     b58:	461c      	movls	r4, r3
     b5a:	1aad      	subs	r5, r5, r2
     b5c:	189b      	adds	r3, r3, r2
     b5e:	b29b      	uxth	r3, r3
     b60:	b2ad      	uxth	r5, r5
     b62:	2c00      	cmp	r4, #0
     b64:	d1ee      	bne.n	b44 <I2S_FreqConfig+0xa4>
     b66:	b2ce      	uxtb	r6, r1
     b68:	fb0a fa06 	mul.w	sl, sl, r6
     b6c:	fbba f9f9 	udiv	r9, sl, r9
     b70:	fa5f f989 	uxtb.w	r9, r9
     b74:	ea46 2609 	orr.w	r6, r6, r9, lsl #8
     b78:	f1b8 0f00 	cmp.w	r8, #0
     b7c:	d023      	beq.n	bc6 <I2S_FreqConfig+0x126>
     b7e:	627e      	str	r6, [r7, #36]	; 0x24
     b80:	2001      	movs	r0, #1
     b82:	e8bd 87f0 	ldmia.w	sp!, {r4, r5, r6, r7, r8, r9, sl, pc}
     b86:	2036      	movs	r0, #54	; 0x36
     b88:	f7ff faa0 	bl	cc <CLKPWR_GetPCLK>
     b8c:	4681      	mov	r9, r0
     b8e:	f1b8 0f00 	cmp.w	r8, #0
     b92:	d1a9      	bne.n	ae8 <I2S_FreqConfig+0x48>
     b94:	f44f 4300 	mov.w	r3, #32768	; 0x8000
     b98:	f2c4 030a 	movt	r3, #16394	; 0x400a
     b9c:	429f      	cmp	r7, r3
     b9e:	d032      	beq.n	c06 <I2S_FreqConfig+0x166>
     ba0:	481a      	ldr	r0, [pc, #104]	; (c0c <I2S_FreqConfig+0x16c>)
     ba2:	2158      	movs	r1, #88	; 0x58
     ba4:	f000 fcd4 	bl	1550 <check_failed>
     ba8:	4818      	ldr	r0, [pc, #96]	; (c0c <I2S_FreqConfig+0x16c>)
     baa:	213b      	movs	r1, #59	; 0x3b
     bac:	683b      	ldr	r3, [r7, #0]
     bae:	f000 fccf 	bl	1550 <check_failed>
     bb2:	683b      	ldr	r3, [r7, #0]
     bb4:	f003 0303 	and.w	r3, r3, #3
     bb8:	2b01      	cmp	r3, #1
     bba:	d91c      	bls.n	bf6 <I2S_FreqConfig+0x156>
     bbc:	f04f 0a40 	mov.w	sl, #64	; 0x40
     bc0:	233f      	movs	r3, #63	; 0x3f
     bc2:	62bb      	str	r3, [r7, #40]	; 0x28
     bc4:	e7a8      	b.n	b18 <I2S_FreqConfig+0x78>
     bc6:	623e      	str	r6, [r7, #32]
     bc8:	2001      	movs	r0, #1
     bca:	e8bd 87f0 	ldmia.w	sp!, {r4, r5, r6, r7, r8, r9, sl, pc}
     bce:	480f      	ldr	r0, [pc, #60]	; (c0c <I2S_FreqConfig+0x16c>)
     bd0:	f44f 71a5 	mov.w	r1, #330	; 0x14a
     bd4:	f000 fcbc 	bl	1550 <check_failed>
     bd8:	e77a      	b.n	ad0 <I2S_FreqConfig+0x30>
     bda:	687b      	ldr	r3, [r7, #4]
     bdc:	687b      	ldr	r3, [r7, #4]
     bde:	f003 0303 	and.w	r3, r3, #3
     be2:	2b01      	cmp	r3, #1
     be4:	d894      	bhi.n	b10 <I2S_FreqConfig+0x70>
     be6:	4a0a      	ldr	r2, [pc, #40]	; (c10 <I2S_FreqConfig+0x170>)
     be8:	5cd3      	ldrb	r3, [r2, r3]
     bea:	005b      	lsls	r3, r3, #1
     bec:	3b01      	subs	r3, #1
     bee:	b2db      	uxtb	r3, r3
     bf0:	f103 0a01 	add.w	sl, r3, #1
     bf4:	e78f      	b.n	b16 <I2S_FreqConfig+0x76>
     bf6:	4a06      	ldr	r2, [pc, #24]	; (c10 <I2S_FreqConfig+0x170>)
     bf8:	5cd3      	ldrb	r3, [r2, r3]
     bfa:	005b      	lsls	r3, r3, #1
     bfc:	3b01      	subs	r3, #1
     bfe:	b2db      	uxtb	r3, r3
     c00:	f103 0a01 	add.w	sl, r3, #1
     c04:	e7dd      	b.n	bc2 <I2S_FreqConfig+0x122>
     c06:	683b      	ldr	r3, [r7, #0]
     c08:	e7d3      	b.n	bb2 <I2S_FreqConfig+0x112>
     c0a:	bf00      	nop
     c0c:	00002144 	.word	0x00002144
     c10:	00002140 	.word	0x00002140

00000c14 <I2S_ModeConfig>:
     c14:	f44f 4300 	mov.w	r3, #32768	; 0x8000
     c18:	f2c4 030a 	movt	r3, #16394	; 0x400a
     c1c:	4298      	cmp	r0, r3
     c1e:	b570      	push	{r4, r5, r6, lr}
     c20:	4605      	mov	r5, r0
     c22:	460c      	mov	r4, r1
     c24:	4616      	mov	r6, r2
     c26:	d004      	beq.n	c32 <I2S_ModeConfig+0x1e>
     c28:	482d      	ldr	r0, [pc, #180]	; (ce0 <I2S_ModeConfig+0xcc>)
     c2a:	f240 11b1 	movw	r1, #433	; 0x1b1
     c2e:	f000 fc8f 	bl	1550 <check_failed>
     c32:	7823      	ldrb	r3, [r4, #0]
     c34:	f013 0ffd 	tst.w	r3, #253	; 0xfd
     c38:	d14c      	bne.n	cd4 <I2S_ModeConfig+0xc0>
     c3a:	7863      	ldrb	r3, [r4, #1]
     c3c:	2b01      	cmp	r3, #1
     c3e:	d904      	bls.n	c4a <I2S_ModeConfig+0x36>
     c40:	4827      	ldr	r0, [pc, #156]	; (ce0 <I2S_ModeConfig+0xcc>)
     c42:	f240 11b3 	movw	r1, #435	; 0x1b3
     c46:	f000 fc83 	bl	1550 <check_failed>
     c4a:	78a3      	ldrb	r3, [r4, #2]
     c4c:	2b01      	cmp	r3, #1
     c4e:	d904      	bls.n	c5a <I2S_ModeConfig+0x46>
     c50:	4823      	ldr	r0, [pc, #140]	; (ce0 <I2S_ModeConfig+0xcc>)
     c52:	f44f 71da 	mov.w	r1, #436	; 0x1b4
     c56:	f000 fc7b 	bl	1550 <check_failed>
     c5a:	2e01      	cmp	r6, #1
     c5c:	d91e      	bls.n	c9c <I2S_ModeConfig+0x88>
     c5e:	4820      	ldr	r0, [pc, #128]	; (ce0 <I2S_ModeConfig+0xcc>)
     c60:	f240 11b5 	movw	r1, #437	; 0x1b5
     c64:	f000 fc74 	bl	1550 <check_failed>
     c68:	6b6b      	ldr	r3, [r5, #52]	; 0x34
     c6a:	f023 030f 	bic.w	r3, r3, #15
     c6e:	636b      	str	r3, [r5, #52]	; 0x34
     c70:	7823      	ldrb	r3, [r4, #0]
     c72:	2b02      	cmp	r3, #2
     c74:	bf02      	ittt	eq
     c76:	6b6b      	ldreq	r3, [r5, #52]	; 0x34
     c78:	f043 0302 	orreq.w	r3, r3, #2
     c7c:	636b      	streq	r3, [r5, #52]	; 0x34
     c7e:	7863      	ldrb	r3, [r4, #1]
     c80:	2b01      	cmp	r3, #1
     c82:	bf02      	ittt	eq
     c84:	6b6b      	ldreq	r3, [r5, #52]	; 0x34
     c86:	f043 0304 	orreq.w	r3, r3, #4
     c8a:	636b      	streq	r3, [r5, #52]	; 0x34
     c8c:	78a3      	ldrb	r3, [r4, #2]
     c8e:	2b01      	cmp	r3, #1
     c90:	bf02      	ittt	eq
     c92:	6b6b      	ldreq	r3, [r5, #52]	; 0x34
     c94:	f043 0308 	orreq.w	r3, r3, #8
     c98:	636b      	streq	r3, [r5, #52]	; 0x34
     c9a:	bd70      	pop	{r4, r5, r6, pc}
     c9c:	2e00      	cmp	r6, #0
     c9e:	d1e3      	bne.n	c68 <I2S_ModeConfig+0x54>
     ca0:	6b2b      	ldr	r3, [r5, #48]	; 0x30
     ca2:	f023 030f 	bic.w	r3, r3, #15
     ca6:	632b      	str	r3, [r5, #48]	; 0x30
     ca8:	7823      	ldrb	r3, [r4, #0]
     caa:	2b02      	cmp	r3, #2
     cac:	bf02      	ittt	eq
     cae:	6b2b      	ldreq	r3, [r5, #48]	; 0x30
     cb0:	f043 0302 	orreq.w	r3, r3, #2
     cb4:	632b      	streq	r3, [r5, #48]	; 0x30
     cb6:	7863      	ldrb	r3, [r4, #1]
     cb8:	2b01      	cmp	r3, #1
     cba:	bf02      	ittt	eq
     cbc:	6b2b      	ldreq	r3, [r5, #48]	; 0x30
     cbe:	f043 0304 	orreq.w	r3, r3, #4
     cc2:	632b      	streq	r3, [r5, #48]	; 0x30
     cc4:	78a3      	ldrb	r3, [r4, #2]
     cc6:	2b01      	cmp	r3, #1
     cc8:	d1e7      	bne.n	c9a <I2S_ModeConfig+0x86>
     cca:	6b2b      	ldr	r3, [r5, #48]	; 0x30
     ccc:	f043 0308 	orr.w	r3, r3, #8
     cd0:	632b      	str	r3, [r5, #48]	; 0x30
     cd2:	bd70      	pop	{r4, r5, r6, pc}
     cd4:	4802      	ldr	r0, [pc, #8]	; (ce0 <I2S_ModeConfig+0xcc>)
     cd6:	f44f 71d9 	mov.w	r1, #434	; 0x1b2
     cda:	f000 fc39 	bl	1550 <check_failed>
     cde:	e7ac      	b.n	c3a <I2S_ModeConfig+0x26>
     ce0:	00002144 	.word	0x00002144

00000ce4 <I2S_DMAConfig>:
     ce4:	b538      	push	{r3, r4, r5, lr}
     ce6:	f44f 4300 	mov.w	r3, #32768	; 0x8000
     cea:	f2c4 030a 	movt	r3, #16394	; 0x400a
     cee:	4298      	cmp	r0, r3
     cf0:	460c      	mov	r4, r1
     cf2:	4615      	mov	r5, r2
     cf4:	d004      	beq.n	d00 <I2S_DMAConfig+0x1c>
     cf6:	481b      	ldr	r0, [pc, #108]	; (d64 <I2S_DMAConfig+0x80>)
     cf8:	f44f 71ee 	mov.w	r1, #476	; 0x1dc
     cfc:	f000 fc28 	bl	1550 <check_failed>
     d00:	7823      	ldrb	r3, [r4, #0]
     d02:	2b01      	cmp	r3, #1
     d04:	d904      	bls.n	d10 <I2S_DMAConfig+0x2c>
     d06:	4817      	ldr	r0, [pc, #92]	; (d64 <I2S_DMAConfig+0x80>)
     d08:	f240 11dd 	movw	r1, #477	; 0x1dd
     d0c:	f000 fc20 	bl	1550 <check_failed>
     d10:	2d01      	cmp	r5, #1
     d12:	d915      	bls.n	d40 <I2S_DMAConfig+0x5c>
     d14:	4813      	ldr	r0, [pc, #76]	; (d64 <I2S_DMAConfig+0x80>)
     d16:	f240 11df 	movw	r1, #479	; 0x1df
     d1a:	f000 fc19 	bl	1550 <check_failed>
     d1e:	7823      	ldrb	r3, [r4, #0]
     d20:	7862      	ldrb	r2, [r4, #1]
     d22:	b133      	cbz	r3, d32 <I2S_DMAConfig+0x4e>
     d24:	f44f 4300 	mov.w	r3, #32768	; 0x8000
     d28:	0412      	lsls	r2, r2, #16
     d2a:	f2c4 030a 	movt	r3, #16394	; 0x400a
     d2e:	619a      	str	r2, [r3, #24]
     d30:	bd38      	pop	{r3, r4, r5, pc}
     d32:	f44f 4300 	mov.w	r3, #32768	; 0x8000
     d36:	0412      	lsls	r2, r2, #16
     d38:	f2c4 030a 	movt	r3, #16394	; 0x400a
     d3c:	615a      	str	r2, [r3, #20]
     d3e:	bd38      	pop	{r3, r4, r5, pc}
     d40:	d1ed      	bne.n	d1e <I2S_DMAConfig+0x3a>
     d42:	7823      	ldrb	r3, [r4, #0]
     d44:	7862      	ldrb	r2, [r4, #1]
     d46:	b933      	cbnz	r3, d56 <I2S_DMAConfig+0x72>
     d48:	f44f 4300 	mov.w	r3, #32768	; 0x8000
     d4c:	0212      	lsls	r2, r2, #8
     d4e:	f2c4 030a 	movt	r3, #16394	; 0x400a
     d52:	615a      	str	r2, [r3, #20]
     d54:	bd38      	pop	{r3, r4, r5, pc}
     d56:	f44f 4300 	mov.w	r3, #32768	; 0x8000
     d5a:	0212      	lsls	r2, r2, #8
     d5c:	f2c4 030a 	movt	r3, #16394	; 0x400a
     d60:	619a      	str	r2, [r3, #24]
     d62:	bd38      	pop	{r3, r4, r5, pc}
     d64:	00002144 	.word	0x00002144

00000d68 <I2S_DMACmd>:
     d68:	e92d 41f0 	stmdb	sp!, {r4, r5, r6, r7, r8, lr}
     d6c:	f44f 4700 	mov.w	r7, #32768	; 0x8000
     d70:	f2c4 070a 	movt	r7, #16394	; 0x400a
     d74:	42b8      	cmp	r0, r7
     d76:	4604      	mov	r4, r0
     d78:	460e      	mov	r6, r1
     d7a:	4690      	mov	r8, r2
     d7c:	461d      	mov	r5, r3
     d7e:	d004      	beq.n	d8a <I2S_DMACmd+0x22>
     d80:	4822      	ldr	r0, [pc, #136]	; (e0c <I2S_DMACmd+0xa4>)
     d82:	f240 2101 	movw	r1, #513	; 0x201
     d86:	f000 fbe3 	bl	1550 <check_failed>
     d8a:	2d01      	cmp	r5, #1
     d8c:	d904      	bls.n	d98 <I2S_DMACmd+0x30>
     d8e:	481f      	ldr	r0, [pc, #124]	; (e0c <I2S_DMACmd+0xa4>)
     d90:	f240 2102 	movw	r1, #514	; 0x202
     d94:	f000 fbdc 	bl	1550 <check_failed>
     d98:	2e01      	cmp	r6, #1
     d9a:	d904      	bls.n	da6 <I2S_DMACmd+0x3e>
     d9c:	481b      	ldr	r0, [pc, #108]	; (e0c <I2S_DMACmd+0xa4>)
     d9e:	f240 2103 	movw	r1, #515	; 0x203
     da2:	f000 fbd5 	bl	1550 <check_failed>
     da6:	f1b8 0f01 	cmp.w	r8, #1
     daa:	d919      	bls.n	de0 <I2S_DMACmd+0x78>
     dac:	4817      	ldr	r0, [pc, #92]	; (e0c <I2S_DMACmd+0xa4>)
     dae:	f44f 7101 	mov.w	r1, #516	; 0x204
     db2:	f000 fbcd 	bl	1550 <check_failed>
     db6:	b94e      	cbnz	r6, dcc <I2S_DMACmd+0x64>
     db8:	6963      	ldr	r3, [r4, #20]
     dba:	2d01      	cmp	r5, #1
     dbc:	bf0c      	ite	eq
     dbe:	f043 0302 	orreq.w	r3, r3, #2
     dc2:	f023 0302 	bicne.w	r3, r3, #2
     dc6:	6163      	str	r3, [r4, #20]
     dc8:	e8bd 81f0 	ldmia.w	sp!, {r4, r5, r6, r7, r8, pc}
     dcc:	69a3      	ldr	r3, [r4, #24]
     dce:	2d01      	cmp	r5, #1
     dd0:	bf0c      	ite	eq
     dd2:	f043 0302 	orreq.w	r3, r3, #2
     dd6:	f023 0302 	bicne.w	r3, r3, #2
     dda:	61a3      	str	r3, [r4, #24]
     ddc:	e8bd 81f0 	ldmia.w	sp!, {r4, r5, r6, r7, r8, pc}
     de0:	d1e9      	bne.n	db6 <I2S_DMACmd+0x4e>
     de2:	b94e      	cbnz	r6, df8 <I2S_DMACmd+0x90>
     de4:	6963      	ldr	r3, [r4, #20]
     de6:	2d01      	cmp	r5, #1
     de8:	bf0c      	ite	eq
     dea:	f043 0301 	orreq.w	r3, r3, #1
     dee:	f023 0301 	bicne.w	r3, r3, #1
     df2:	6163      	str	r3, [r4, #20]
     df4:	e8bd 81f0 	ldmia.w	sp!, {r4, r5, r6, r7, r8, pc}
     df8:	69a3      	ldr	r3, [r4, #24]
     dfa:	2d01      	cmp	r5, #1
     dfc:	bf0c      	ite	eq
     dfe:	f043 0301 	orreq.w	r3, r3, #1
     e02:	f023 0301 	bicne.w	r3, r3, #1
     e06:	61a3      	str	r3, [r4, #24]
     e08:	e8bd 81f0 	ldmia.w	sp!, {r4, r5, r6, r7, r8, pc}
     e0c:	00002144 	.word	0x00002144

00000e10 <GPDMA_Init>:
     e10:	e92d 43f8 	stmdb	sp!, {r3, r4, r5, r6, r7, r8, r9, lr}
     e14:	f04f 5000 	mov.w	r0, #536870912	; 0x20000000
     e18:	2101      	movs	r1, #1
     e1a:	f7ff f977 	bl	10c <CLKPWR_ConfigPPWR>
     e1e:	f44f 4982 	mov.w	r9, #16640	; 0x4100
     e22:	f244 1820 	movw	r8, #16672	; 0x4120
     e26:	f244 1c40 	movw	ip, #16704	; 0x4140
     e2a:	f244 1760 	movw	r7, #16736	; 0x4160
     e2e:	f44f 4683 	mov.w	r6, #16768	; 0x4180
     e32:	f244 15a0 	movw	r5, #16800	; 0x41a0
     e36:	f244 14c0 	movw	r4, #16832	; 0x41c0
     e3a:	f244 10e0 	movw	r0, #16864	; 0x41e0
     e3e:	f44f 4280 	mov.w	r2, #16384	; 0x4000
     e42:	2300      	movs	r3, #0
     e44:	f2c5 0200 	movt	r2, #20480	; 0x5000
     e48:	21ff      	movs	r1, #255	; 0xff
     e4a:	f2c5 0900 	movt	r9, #20480	; 0x5000
     e4e:	f2c5 0800 	movt	r8, #20480	; 0x5000
     e52:	f2c5 0c00 	movt	ip, #20480	; 0x5000
     e56:	f2c5 0700 	movt	r7, #20480	; 0x5000
     e5a:	f2c5 0600 	movt	r6, #20480	; 0x5000
     e5e:	f2c5 0500 	movt	r5, #20480	; 0x5000
     e62:	f2c5 0400 	movt	r4, #20480	; 0x5000
     e66:	f2c5 0000 	movt	r0, #20480	; 0x5000
     e6a:	f8c9 3010 	str.w	r3, [r9, #16]
     e6e:	f8c8 3010 	str.w	r3, [r8, #16]
     e72:	f8cc 3010 	str.w	r3, [ip, #16]
     e76:	613b      	str	r3, [r7, #16]
     e78:	6133      	str	r3, [r6, #16]
     e7a:	612b      	str	r3, [r5, #16]
     e7c:	6123      	str	r3, [r4, #16]
     e7e:	6103      	str	r3, [r0, #16]
     e80:	6091      	str	r1, [r2, #8]
     e82:	6111      	str	r1, [r2, #16]
     e84:	e8bd 83f8 	ldmia.w	sp!, {r3, r4, r5, r6, r7, r8, r9, pc}

00000e88 <GPDMA_Setup>:
     e88:	e92d 03f0 	stmdb	sp!, {r4, r5, r6, r7, r8, r9}
     e8c:	6804      	ldr	r4, [r0, #0]
     e8e:	2201      	movs	r2, #1
     e90:	fa02 f204 	lsl.w	r2, r2, r4
     e94:	f44f 4380 	mov.w	r3, #16384	; 0x4000
     e98:	f2c5 0300 	movt	r3, #20480	; 0x5000
     e9c:	69d9      	ldr	r1, [r3, #28]
     e9e:	b2c9      	uxtb	r1, r1
     ea0:	4011      	ands	r1, r2
     ea2:	d110      	bne.n	ec6 <GPDMA_Setup+0x3e>
     ea4:	b2d5      	uxtb	r5, r2
     ea6:	4a75      	ldr	r2, [pc, #468]	; (107c <GPDMA_Setup+0x1f4>)
     ea8:	f852 2024 	ldr.w	r2, [r2, r4, lsl #2]
     eac:	609d      	str	r5, [r3, #8]
     eae:	611d      	str	r5, [r3, #16]
     eb0:	6a04      	ldr	r4, [r0, #32]
     eb2:	6943      	ldr	r3, [r0, #20]
     eb4:	60d1      	str	r1, [r2, #12]
     eb6:	6111      	str	r1, [r2, #16]
     eb8:	6094      	str	r4, [r2, #8]
     eba:	2b03      	cmp	r3, #3
     ebc:	d803      	bhi.n	ec6 <GPDMA_Setup+0x3e>
     ebe:	e8df f003 	tbb	[pc, r3]
     ec2:	9e6c      	.short	0x9e6c
     ec4:	06be      	.short	0x06be
     ec6:	2000      	movs	r0, #0
     ec8:	e8bd 03f0 	ldmia.w	sp!, {r4, r5, r6, r7, r8, r9}
     ecc:	4770      	bx	lr
     ece:	6983      	ldr	r3, [r0, #24]
     ed0:	496b      	ldr	r1, [pc, #428]	; (1080 <GPDMA_Setup+0x1f8>)
     ed2:	69c5      	ldr	r5, [r0, #28]
     ed4:	6844      	ldr	r4, [r0, #4]
     ed6:	18cf      	adds	r7, r1, r3
     ed8:	194e      	adds	r6, r1, r5
     eda:	f897 9060 	ldrb.w	r9, [r7, #96]	; 0x60
     ede:	0524      	lsls	r4, r4, #20
     ee0:	f896 c060 	ldrb.w	ip, [r6, #96]	; 0x60
     ee4:	0d24      	lsrs	r4, r4, #20
     ee6:	f897 8078 	ldrb.w	r8, [r7, #120]	; 0x78
     eea:	f044 4400 	orr.w	r4, r4, #2147483648	; 0x80000000
     eee:	f009 0907 	and.w	r9, r9, #7
     ef2:	ea44 3409 	orr.w	r4, r4, r9, lsl #12
     ef6:	f896 7078 	ldrb.w	r7, [r6, #120]	; 0x78
     efa:	f00c 0c07 	and.w	ip, ip, #7
     efe:	ea44 3ccc 	orr.w	ip, r4, ip, lsl #15
     f02:	f008 0807 	and.w	r8, r8, #7
     f06:	f851 4025 	ldr.w	r4, [r1, r5, lsl #2]
     f0a:	f851 6023 	ldr.w	r6, [r1, r3, lsl #2]
     f0e:	ea4c 4588 	orr.w	r5, ip, r8, lsl #18
     f12:	f007 0107 	and.w	r1, r7, #7
     f16:	ea45 5141 	orr.w	r1, r5, r1, lsl #21
     f1a:	6016      	str	r6, [r2, #0]
     f1c:	6054      	str	r4, [r2, #4]
     f1e:	60d1      	str	r1, [r2, #12]
     f20:	2b0f      	cmp	r3, #15
     f22:	d950      	bls.n	fc6 <GPDMA_Setup+0x13e>
     f24:	2101      	movs	r1, #1
     f26:	3b10      	subs	r3, #16
     f28:	fa01 f303 	lsl.w	r3, r1, r3
     f2c:	f24c 11c4 	movw	r1, #49604	; 0xc1c4
     f30:	f2c4 0100 	movt	r1, #16384	; 0x4000
     f34:	680c      	ldr	r4, [r1, #0]
     f36:	4323      	orrs	r3, r4
     f38:	600b      	str	r3, [r1, #0]
     f3a:	69c3      	ldr	r3, [r0, #28]
     f3c:	2b0f      	cmp	r3, #15
     f3e:	d951      	bls.n	fe4 <GPDMA_Setup+0x15c>
     f40:	2101      	movs	r1, #1
     f42:	3b10      	subs	r3, #16
     f44:	fa01 f303 	lsl.w	r3, r1, r3
     f48:	f24c 11c4 	movw	r1, #49604	; 0xc1c4
     f4c:	f2c4 0100 	movt	r1, #16384	; 0x4000
     f50:	680c      	ldr	r4, [r1, #0]
     f52:	4323      	orrs	r3, r4
     f54:	600b      	str	r3, [r1, #0]
     f56:	f44f 4180 	mov.w	r1, #16384	; 0x4000
     f5a:	f2c5 0100 	movt	r1, #20480	; 0x5000
     f5e:	2301      	movs	r3, #1
     f60:	630b      	str	r3, [r1, #48]	; 0x30
     f62:	6b0b      	ldr	r3, [r1, #48]	; 0x30
     f64:	07db      	lsls	r3, r3, #31
     f66:	d5fc      	bpl.n	f62 <GPDMA_Setup+0xda>
     f68:	6981      	ldr	r1, [r0, #24]
     f6a:	69c3      	ldr	r3, [r0, #28]
     f6c:	6940      	ldr	r0, [r0, #20]
     f6e:	290f      	cmp	r1, #15
     f70:	bf88      	it	hi
     f72:	3908      	subhi	r1, #8
     f74:	f000 0007 	and.w	r0, r0, #7
     f78:	2b0f      	cmp	r3, #15
     f7a:	bf88      	it	hi
     f7c:	3b08      	subhi	r3, #8
     f7e:	02c0      	lsls	r0, r0, #11
     f80:	f440 4040 	orr.w	r0, r0, #49152	; 0xc000
     f84:	f001 011f 	and.w	r1, r1, #31
     f88:	ea40 0141 	orr.w	r1, r0, r1, lsl #1
     f8c:	f003 031f 	and.w	r3, r3, #31
     f90:	ea41 1383 	orr.w	r3, r1, r3, lsl #6
     f94:	6113      	str	r3, [r2, #16]
     f96:	2001      	movs	r0, #1
     f98:	e796      	b.n	ec8 <GPDMA_Setup+0x40>
     f9a:	6843      	ldr	r3, [r0, #4]
     f9c:	6881      	ldr	r1, [r0, #8]
     f9e:	051b      	lsls	r3, r3, #20
     fa0:	0d1b      	lsrs	r3, r3, #20
     fa2:	f043 430c 	orr.w	r3, r3, #2348810240	; 0x8c000000
     fa6:	f001 0107 	and.w	r1, r1, #7
     faa:	f443 3310 	orr.w	r3, r3, #147456	; 0x24000
     fae:	ea43 4381 	orr.w	r3, r3, r1, lsl #18
     fb2:	ea43 5141 	orr.w	r1, r3, r1, lsl #21
     fb6:	6983      	ldr	r3, [r0, #24]
     fb8:	68c5      	ldr	r5, [r0, #12]
     fba:	6904      	ldr	r4, [r0, #16]
     fbc:	2b0f      	cmp	r3, #15
     fbe:	6015      	str	r5, [r2, #0]
     fc0:	6054      	str	r4, [r2, #4]
     fc2:	60d1      	str	r1, [r2, #12]
     fc4:	d8ae      	bhi.n	f24 <GPDMA_Setup+0x9c>
     fc6:	2101      	movs	r1, #1
     fc8:	3b08      	subs	r3, #8
     fca:	fa01 f303 	lsl.w	r3, r1, r3
     fce:	f24c 11c4 	movw	r1, #49604	; 0xc1c4
     fd2:	f2c4 0100 	movt	r1, #16384	; 0x4000
     fd6:	680c      	ldr	r4, [r1, #0]
     fd8:	ea24 0303 	bic.w	r3, r4, r3
     fdc:	600b      	str	r3, [r1, #0]
     fde:	69c3      	ldr	r3, [r0, #28]
     fe0:	2b0f      	cmp	r3, #15
     fe2:	d8ad      	bhi.n	f40 <GPDMA_Setup+0xb8>
     fe4:	2101      	movs	r1, #1
     fe6:	3b08      	subs	r3, #8
     fe8:	fa01 f303 	lsl.w	r3, r1, r3
     fec:	f24c 11c4 	movw	r1, #49604	; 0xc1c4
     ff0:	f2c4 0100 	movt	r1, #16384	; 0x4000
     ff4:	680c      	ldr	r4, [r1, #0]
     ff6:	ea24 0303 	bic.w	r3, r4, r3
     ffa:	600b      	str	r3, [r1, #0]
     ffc:	e7ab      	b.n	f56 <GPDMA_Setup+0xce>
     ffe:	69c5      	ldr	r5, [r0, #28]
    1000:	4c1f      	ldr	r4, [pc, #124]	; (1080 <GPDMA_Setup+0x1f8>)
    1002:	6843      	ldr	r3, [r0, #4]
    1004:	1961      	adds	r1, r4, r5
    1006:	f891 6060 	ldrb.w	r6, [r1, #96]	; 0x60
    100a:	051b      	lsls	r3, r3, #20
    100c:	0d1b      	lsrs	r3, r3, #20
    100e:	f006 0607 	and.w	r6, r6, #7
    1012:	f891 1078 	ldrb.w	r1, [r1, #120]	; 0x78
    1016:	f043 4304 	orr.w	r3, r3, #2214592512	; 0x84000000
    101a:	ea43 3306 	orr.w	r3, r3, r6, lsl #12
    101e:	f001 0107 	and.w	r1, r1, #7
    1022:	ea43 36c6 	orr.w	r6, r3, r6, lsl #15
    1026:	f854 4025 	ldr.w	r4, [r4, r5, lsl #2]
    102a:	68c3      	ldr	r3, [r0, #12]
    102c:	ea46 4681 	orr.w	r6, r6, r1, lsl #18
    1030:	ea46 5141 	orr.w	r1, r6, r1, lsl #21
    1034:	6013      	str	r3, [r2, #0]
    1036:	6983      	ldr	r3, [r0, #24]
    1038:	6054      	str	r4, [r2, #4]
    103a:	60d1      	str	r1, [r2, #12]
    103c:	e770      	b.n	f20 <GPDMA_Setup+0x98>
    103e:	6983      	ldr	r3, [r0, #24]
    1040:	4d0f      	ldr	r5, [pc, #60]	; (1080 <GPDMA_Setup+0x1f8>)
    1042:	6841      	ldr	r1, [r0, #4]
    1044:	18ec      	adds	r4, r5, r3
    1046:	f894 6060 	ldrb.w	r6, [r4, #96]	; 0x60
    104a:	0509      	lsls	r1, r1, #20
    104c:	0d09      	lsrs	r1, r1, #20
    104e:	f006 0607 	and.w	r6, r6, #7
    1052:	f894 4078 	ldrb.w	r4, [r4, #120]	; 0x78
    1056:	f041 4108 	orr.w	r1, r1, #2281701376	; 0x88000000
    105a:	ea41 3106 	orr.w	r1, r1, r6, lsl #12
    105e:	f004 0407 	and.w	r4, r4, #7
    1062:	ea41 36c6 	orr.w	r6, r1, r6, lsl #15
    1066:	f855 5023 	ldr.w	r5, [r5, r3, lsl #2]
    106a:	6901      	ldr	r1, [r0, #16]
    106c:	ea46 4684 	orr.w	r6, r6, r4, lsl #18
    1070:	ea46 5444 	orr.w	r4, r6, r4, lsl #21
    1074:	6015      	str	r5, [r2, #0]
    1076:	6051      	str	r1, [r2, #4]
    1078:	60d4      	str	r4, [r2, #12]
    107a:	e751      	b.n	f20 <GPDMA_Setup+0x98>
    107c:	10000004 	.word	0x10000004
    1080:	00002190 	.word	0x00002190

00001084 <GPDMA_ChannelCmd>:
    1084:	4b05      	ldr	r3, [pc, #20]	; (109c <GPDMA_ChannelCmd+0x18>)
    1086:	2901      	cmp	r1, #1
    1088:	f853 3020 	ldr.w	r3, [r3, r0, lsl #2]
    108c:	691a      	ldr	r2, [r3, #16]
    108e:	bf0c      	ite	eq
    1090:	f042 0201 	orreq.w	r2, r2, #1
    1094:	f022 0201 	bicne.w	r2, r2, #1
    1098:	611a      	str	r2, [r3, #16]
    109a:	4770      	bx	lr
    109c:	10000004 	.word	0x10000004

000010a0 <GPDMA_IntGetStatus>:
    10a0:	2805      	cmp	r0, #5
    10a2:	b538      	push	{r3, r4, r5, lr}
    10a4:	4604      	mov	r4, r0
    10a6:	460d      	mov	r5, r1
    10a8:	d811      	bhi.n	10ce <GPDMA_IntGetStatus+0x2e>
    10aa:	2d07      	cmp	r5, #7
    10ac:	d809      	bhi.n	10c2 <GPDMA_IntGetStatus+0x22>
    10ae:	2301      	movs	r3, #1
    10b0:	fa03 f505 	lsl.w	r5, r3, r5
    10b4:	2c04      	cmp	r4, #4
    10b6:	d81b      	bhi.n	10f0 <GPDMA_IntGetStatus+0x50>
    10b8:	e8df f004 	tbb	[pc, r4]
    10bc:	463b3025 	.word	0x463b3025
    10c0:	0f          	.byte	0x0f
    10c1:	00          	.byte	0x00
    10c2:	4827      	ldr	r0, [pc, #156]	; (1160 <GPDMA_IntGetStatus+0xc0>)
    10c4:	f240 1185 	movw	r1, #389	; 0x185
    10c8:	f000 fa42 	bl	1550 <check_failed>
    10cc:	e7ef      	b.n	10ae <GPDMA_IntGetStatus+0xe>
    10ce:	4824      	ldr	r0, [pc, #144]	; (1160 <GPDMA_IntGetStatus+0xc0>)
    10d0:	f44f 71c2 	mov.w	r1, #388	; 0x184
    10d4:	f000 fa3c 	bl	1550 <check_failed>
    10d8:	e7e7      	b.n	10aa <GPDMA_IntGetStatus+0xa>
    10da:	f44f 4380 	mov.w	r3, #16384	; 0x4000
    10de:	f2c5 0300 	movt	r3, #20480	; 0x5000
    10e2:	695b      	ldr	r3, [r3, #20]
    10e4:	b2db      	uxtb	r3, r3
    10e6:	422b      	tst	r3, r5
    10e8:	bf0c      	ite	eq
    10ea:	2000      	moveq	r0, #0
    10ec:	2001      	movne	r0, #1
    10ee:	bd38      	pop	{r3, r4, r5, pc}
    10f0:	f44f 4380 	mov.w	r3, #16384	; 0x4000
    10f4:	f2c5 0300 	movt	r3, #20480	; 0x5000
    10f8:	69db      	ldr	r3, [r3, #28]
    10fa:	b2db      	uxtb	r3, r3
    10fc:	422b      	tst	r3, r5
    10fe:	bf0c      	ite	eq
    1100:	2000      	moveq	r0, #0
    1102:	2001      	movne	r0, #1
    1104:	bd38      	pop	{r3, r4, r5, pc}
    1106:	f44f 4380 	mov.w	r3, #16384	; 0x4000
    110a:	f2c5 0300 	movt	r3, #20480	; 0x5000
    110e:	681b      	ldr	r3, [r3, #0]
    1110:	b2db      	uxtb	r3, r3
    1112:	422b      	tst	r3, r5
    1114:	bf0c      	ite	eq
    1116:	2000      	moveq	r0, #0
    1118:	2001      	movne	r0, #1
    111a:	bd38      	pop	{r3, r4, r5, pc}
    111c:	f44f 4380 	mov.w	r3, #16384	; 0x4000
    1120:	f2c5 0300 	movt	r3, #20480	; 0x5000
    1124:	685b      	ldr	r3, [r3, #4]
    1126:	b2db      	uxtb	r3, r3
    1128:	422b      	tst	r3, r5
    112a:	bf0c      	ite	eq
    112c:	2000      	moveq	r0, #0
    112e:	2001      	movne	r0, #1
    1130:	bd38      	pop	{r3, r4, r5, pc}
    1132:	f44f 4380 	mov.w	r3, #16384	; 0x4000
    1136:	f2c5 0300 	movt	r3, #20480	; 0x5000
    113a:	68db      	ldr	r3, [r3, #12]
    113c:	b2db      	uxtb	r3, r3
    113e:	422b      	tst	r3, r5
    1140:	bf0c      	ite	eq
    1142:	2000      	moveq	r0, #0
    1144:	2001      	movne	r0, #1
    1146:	bd38      	pop	{r3, r4, r5, pc}
    1148:	f44f 4380 	mov.w	r3, #16384	; 0x4000
    114c:	f2c5 0300 	movt	r3, #20480	; 0x5000
    1150:	699b      	ldr	r3, [r3, #24]
    1152:	b2db      	uxtb	r3, r3
    1154:	422b      	tst	r3, r5
    1156:	bf0c      	ite	eq
    1158:	2000      	moveq	r0, #0
    115a:	2001      	movne	r0, #1
    115c:	bd38      	pop	{r3, r4, r5, pc}
    115e:	bf00      	nop
    1160:	00002220 	.word	0x00002220

00001164 <GPDMA_ClearIntPending>:
    1164:	2801      	cmp	r0, #1
    1166:	b538      	push	{r3, r4, r5, lr}
    1168:	4605      	mov	r5, r0
    116a:	460c      	mov	r4, r1
    116c:	d904      	bls.n	1178 <GPDMA_ClearIntPending+0x14>
    116e:	480d      	ldr	r0, [pc, #52]	; (11a4 <GPDMA_ClearIntPending+0x40>)
    1170:	f44f 71d7 	mov.w	r1, #430	; 0x1ae
    1174:	f000 f9ec 	bl	1550 <check_failed>
    1178:	2c07      	cmp	r4, #7
    117a:	d80c      	bhi.n	1196 <GPDMA_ClearIntPending+0x32>
    117c:	2301      	movs	r3, #1
    117e:	fa03 f404 	lsl.w	r4, r3, r4
    1182:	f44f 4380 	mov.w	r3, #16384	; 0x4000
    1186:	b2e4      	uxtb	r4, r4
    1188:	f2c5 0300 	movt	r3, #20480	; 0x5000
    118c:	b10d      	cbz	r5, 1192 <GPDMA_ClearIntPending+0x2e>
    118e:	611c      	str	r4, [r3, #16]
    1190:	bd38      	pop	{r3, r4, r5, pc}
    1192:	609c      	str	r4, [r3, #8]
    1194:	bd38      	pop	{r3, r4, r5, pc}
    1196:	4803      	ldr	r0, [pc, #12]	; (11a4 <GPDMA_ClearIntPending+0x40>)
    1198:	f240 11af 	movw	r1, #431	; 0x1af
    119c:	f000 f9d8 	bl	1550 <check_failed>
    11a0:	e7ec      	b.n	117c <GPDMA_ClearIntPending+0x18>
    11a2:	bf00      	nop
    11a4:	00002220 	.word	0x00002220

000011a8 <SysTick_Handler>:
    11a8:	b538      	push	{r3, r4, r5, lr}
    11aa:	4b19      	ldr	r3, [pc, #100]	; (1210 <SysTick_Handler+0x68>)
    11ac:	4c19      	ldr	r4, [pc, #100]	; (1214 <SysTick_Handler+0x6c>)
    11ae:	681a      	ldr	r2, [r3, #0]
    11b0:	3201      	adds	r2, #1
    11b2:	601a      	str	r2, [r3, #0]
    11b4:	6823      	ldr	r3, [r4, #0]
    11b6:	3301      	adds	r3, #1
    11b8:	6023      	str	r3, [r4, #0]
    11ba:	6823      	ldr	r3, [r4, #0]
    11bc:	f5b3 7ffa 	cmp.w	r3, #500	; 0x1f4
    11c0:	d31d      	bcc.n	11fe <SysTick_Handler+0x56>
    11c2:	2300      	movs	r3, #0
    11c4:	6023      	str	r3, [r4, #0]
    11c6:	6862      	ldr	r2, [r4, #4]
    11c8:	4d13      	ldr	r5, [pc, #76]	; (1218 <SysTick_Handler+0x70>)
    11ca:	3201      	adds	r2, #1
    11cc:	6062      	str	r2, [r4, #4]
    11ce:	6861      	ldr	r1, [r4, #4]
    11d0:	f64f 72fe 	movw	r2, #65534	; 0xfffe
    11d4:	4291      	cmp	r1, r2
    11d6:	bf88      	it	hi
    11d8:	6063      	strhi	r3, [r4, #4]
    11da:	6862      	ldr	r2, [r4, #4]
    11dc:	4b0f      	ldr	r3, [pc, #60]	; (121c <SysTick_Handler+0x74>)
    11de:	2101      	movs	r1, #1
    11e0:	60da      	str	r2, [r3, #12]
    11e2:	609a      	str	r2, [r3, #8]
    11e4:	605a      	str	r2, [r3, #4]
    11e6:	601a      	str	r2, [r3, #0]
    11e8:	68e8      	ldr	r0, [r5, #12]
    11ea:	f000 f999 	bl	1520 <term1PutValue>
    11ee:	68a0      	ldr	r0, [r4, #8]
    11f0:	4c08      	ldr	r4, [pc, #32]	; (1214 <SysTick_Handler+0x6c>)
    11f2:	b928      	cbnz	r0, 1200 <SysTick_Handler+0x58>
    11f4:	6929      	ldr	r1, [r5, #16]
    11f6:	f000 f8cb 	bl	1390 <GPIO_ClearValue>
    11fa:	2301      	movs	r3, #1
    11fc:	60a3      	str	r3, [r4, #8]
    11fe:	bd38      	pop	{r3, r4, r5, pc}
    1200:	2000      	movs	r0, #0
    1202:	6929      	ldr	r1, [r5, #16]
    1204:	f000 f8ba 	bl	137c <GPIO_SetValue>
    1208:	2300      	movs	r3, #0
    120a:	60a3      	str	r3, [r4, #8]
    120c:	bd38      	pop	{r3, r4, r5, pc}
    120e:	bf00      	nop
    1210:	10000048 	.word	0x10000048
    1214:	1000003c 	.word	0x1000003c
    1218:	10000024 	.word	0x10000024
    121c:	1000004c 	.word	0x1000004c

00001220 <DMA_IRQHandler>:
    1220:	b508      	push	{r3, lr}
    1222:	480f      	ldr	r0, [pc, #60]	; (1260 <DMA_IRQHandler+0x40>)
    1224:	f000 f96c 	bl	1500 <term1PutText>
    1228:	2000      	movs	r0, #0
    122a:	4601      	mov	r1, r0
    122c:	f7ff ff38 	bl	10a0 <GPDMA_IntGetStatus>
    1230:	2801      	cmp	r0, #1
    1232:	d000      	beq.n	1236 <DMA_IRQHandler+0x16>
    1234:	bd08      	pop	{r3, pc}
    1236:	2100      	movs	r1, #0
    1238:	f7ff ff32 	bl	10a0 <GPDMA_IntGetStatus>
    123c:	2801      	cmp	r0, #1
    123e:	d00a      	beq.n	1256 <DMA_IRQHandler+0x36>
    1240:	2002      	movs	r0, #2
    1242:	2100      	movs	r1, #0
    1244:	f7ff ff2c 	bl	10a0 <GPDMA_IntGetStatus>
    1248:	2801      	cmp	r0, #1
    124a:	d1f3      	bne.n	1234 <DMA_IRQHandler+0x14>
    124c:	2100      	movs	r1, #0
    124e:	e8bd 4008 	ldmia.w	sp!, {r3, lr}
    1252:	f7ff bf87 	b.w	1164 <GPDMA_ClearIntPending>
    1256:	2000      	movs	r0, #0
    1258:	4601      	mov	r1, r0
    125a:	f7ff ff83 	bl	1164 <GPDMA_ClearIntPending>
    125e:	e7ef      	b.n	1240 <DMA_IRQHandler+0x20>
    1260:	00002270 	.word	0x00002270

00001264 <main>:
    1264:	e92d 43f0 	stmdb	sp!, {r4, r5, r6, r7, r8, r9, lr}
    1268:	b08b      	sub	sp, #44	; 0x2c
    126a:	f7fe ffe5 	bl	238 <SystemInit>
    126e:	f7fe ff6f 	bl	150 <SystemCoreClockUpdate>
    1272:	4a34      	ldr	r2, [pc, #208]	; (1344 <main+0xe0>)
    1274:	f644 53d3 	movw	r3, #19923	; 0x4dd3
    1278:	6812      	ldr	r2, [r2, #0]
    127a:	f2c1 0362 	movt	r3, #4194	; 0x1062
    127e:	fba3 1302 	umull	r1, r3, r3, r2
    1282:	4d31      	ldr	r5, [pc, #196]	; (1348 <main+0xe4>)
    1284:	227b      	movs	r2, #123	; 0x7b
    1286:	ea4f 1e93 	mov.w	lr, r3, lsr #6
    128a:	f44f 466d 	mov.w	r6, #60672	; 0xed00
    128e:	f24e 0310 	movw	r3, #57360	; 0xe010
    1292:	f10e 3eff 	add.w	lr, lr, #4294967295
    1296:	60ea      	str	r2, [r5, #12]
    1298:	f2ce 0300 	movt	r3, #57344	; 0xe000
    129c:	60aa      	str	r2, [r5, #8]
    129e:	f2ce 0600 	movt	r6, #57344	; 0xe000
    12a2:	606a      	str	r2, [r5, #4]
    12a4:	602a      	str	r2, [r5, #0]
    12a6:	22f8      	movs	r2, #248	; 0xf8
    12a8:	f8c3 e004 	str.w	lr, [r3, #4]
    12ac:	2400      	movs	r4, #0
    12ae:	f886 2023 	strb.w	r2, [r6, #35]	; 0x23
    12b2:	4f26      	ldr	r7, [pc, #152]	; (134c <main+0xe8>)
    12b4:	2207      	movs	r2, #7
    12b6:	609c      	str	r4, [r3, #8]
    12b8:	f44f 4000 	mov.w	r0, #32768	; 0x8000
    12bc:	601a      	str	r2, [r3, #0]
    12be:	2101      	movs	r1, #1
    12c0:	f7fe ff24 	bl	10c <CLKPWR_ConfigPPWR>
    12c4:	f44f 4661 	mov.w	r6, #57600	; 0xe100
    12c8:	2201      	movs	r2, #1
    12ca:	4620      	mov	r0, r4
    12cc:	6939      	ldr	r1, [r7, #16]
    12ce:	f000 f843 	bl	1358 <GPIO_SetDir>
    12d2:	f2ce 0600 	movt	r6, #57344	; 0xe000
    12d6:	f000 f8d7 	bl	1488 <uart1Init>
    12da:	f04f 6880 	mov.w	r8, #67108864	; 0x4000000
    12de:	2348      	movs	r3, #72	; 0x48
    12e0:	f8c6 8080 	str.w	r8, [r6, #128]	; 0x80
    12e4:	f886 331a 	strb.w	r3, [r6, #794]	; 0x31a
    12e8:	f7ff fd92 	bl	e10 <GPDMA_Init>
    12ec:	2304      	movs	r3, #4
    12ee:	9302      	str	r3, [sp, #8]
    12f0:	2302      	movs	r3, #2
    12f2:	f04f 0901 	mov.w	r9, #1
    12f6:	9303      	str	r3, [sp, #12]
    12f8:	a801      	add	r0, sp, #4
    12fa:	2305      	movs	r3, #5
    12fc:	9308      	str	r3, [sp, #32]
    12fe:	9401      	str	r4, [sp, #4]
    1300:	9407      	str	r4, [sp, #28]
    1302:	9409      	str	r4, [sp, #36]	; 0x24
    1304:	9504      	str	r5, [sp, #16]
    1306:	9705      	str	r7, [sp, #20]
    1308:	f8cd 9018 	str.w	r9, [sp, #24]
    130c:	f7ff fdbc 	bl	e88 <GPDMA_Setup>
    1310:	4620      	mov	r0, r4
    1312:	4649      	mov	r1, r9
    1314:	f7ff feb6 	bl	1084 <GPDMA_ChannelCmd>
    1318:	f64a 4044 	movw	r0, #44100	; 0xac44
    131c:	f8c6 8000 	str.w	r8, [r6]
    1320:	f000 f96a 	bl	15f8 <initTX>
    1324:	480a      	ldr	r0, [pc, #40]	; (1350 <main+0xec>)
    1326:	f000 f8eb 	bl	1500 <term1PutText>
    132a:	f248 0410 	movw	r4, #32784	; 0x8010
    132e:	f2c4 040a 	movt	r4, #16394	; 0x400a
    1332:	6823      	ldr	r3, [r4, #0]
    1334:	f013 0f06 	tst.w	r3, #6
    1338:	d0fb      	beq.n	1332 <main+0xce>
    133a:	4806      	ldr	r0, [pc, #24]	; (1354 <main+0xf0>)
    133c:	f000 f8e0 	bl	1500 <term1PutText>
    1340:	e7f7      	b.n	1332 <main+0xce>
    1342:	bf00      	nop
    1344:	10000000 	.word	0x10000000
    1348:	1000004c 	.word	0x1000004c
    134c:	10000024 	.word	0x10000024
    1350:	00002278 	.word	0x00002278
    1354:	00002284 	.word	0x00002284

00001358 <GPIO_SetDir>:
    1358:	2804      	cmp	r0, #4
    135a:	d808      	bhi.n	136e <GPIO_SetDir+0x16>
    135c:	4b06      	ldr	r3, [pc, #24]	; (1378 <GPIO_SetDir+0x20>)
    135e:	f853 3020 	ldr.w	r3, [r3, r0, lsl #2]
    1362:	b123      	cbz	r3, 136e <GPIO_SetDir+0x16>
    1364:	b922      	cbnz	r2, 1370 <GPIO_SetDir+0x18>
    1366:	681a      	ldr	r2, [r3, #0]
    1368:	ea22 0101 	bic.w	r1, r2, r1
    136c:	6019      	str	r1, [r3, #0]
    136e:	4770      	bx	lr
    1370:	681a      	ldr	r2, [r3, #0]
    1372:	4311      	orrs	r1, r2
    1374:	6019      	str	r1, [r3, #0]
    1376:	4770      	bx	lr
    1378:	000022a0 	.word	0x000022a0

0000137c <GPIO_SetValue>:
    137c:	2804      	cmp	r0, #4
    137e:	d804      	bhi.n	138a <GPIO_SetValue+0xe>
    1380:	4b02      	ldr	r3, [pc, #8]	; (138c <GPIO_SetValue+0x10>)
    1382:	f853 3020 	ldr.w	r3, [r3, r0, lsl #2]
    1386:	b103      	cbz	r3, 138a <GPIO_SetValue+0xe>
    1388:	6199      	str	r1, [r3, #24]
    138a:	4770      	bx	lr
    138c:	000022a0 	.word	0x000022a0

00001390 <GPIO_ClearValue>:
    1390:	2804      	cmp	r0, #4
    1392:	d804      	bhi.n	139e <GPIO_ClearValue+0xe>
    1394:	4b02      	ldr	r3, [pc, #8]	; (13a0 <GPIO_ClearValue+0x10>)
    1396:	f853 3020 	ldr.w	r3, [r3, r0, lsl #2]
    139a:	b103      	cbz	r3, 139e <GPIO_ClearValue+0xe>
    139c:	61d9      	str	r1, [r3, #28]
    139e:	4770      	bx	lr
    13a0:	000022a0 	.word	0x000022a0

000013a4 <ADC_IRQHandler>:
    13a4:	e7fe      	b.n	13a4 <ADC_IRQHandler>
    13a6:	bf00      	nop

000013a8 <Default_Reset_Handler>:
    13a8:	4910      	ldr	r1, [pc, #64]	; (13ec <zero_loop+0x1a>)
    13aa:	4b11      	ldr	r3, [pc, #68]	; (13f0 <zero_loop+0x1e>)
    13ac:	b510      	push	{r4, lr}
    13ae:	4299      	cmp	r1, r3
    13b0:	d20b      	bcs.n	13ca <Default_Reset_Handler+0x22>
    13b2:	43c8      	mvns	r0, r1
    13b4:	18c0      	adds	r0, r0, r3
    13b6:	f020 0003 	bic.w	r0, r0, #3
    13ba:	4c0e      	ldr	r4, [pc, #56]	; (13f4 <zero_loop+0x22>)
    13bc:	3004      	adds	r0, #4
    13be:	2300      	movs	r3, #0
    13c0:	591a      	ldr	r2, [r3, r4]
    13c2:	505a      	str	r2, [r3, r1]
    13c4:	3304      	adds	r3, #4
    13c6:	4283      	cmp	r3, r0
    13c8:	d1fa      	bne.n	13c0 <Default_Reset_Handler+0x18>
    13ca:	480b      	ldr	r0, [pc, #44]	; (13f8 <zero_loop+0x26>)
    13cc:	490b      	ldr	r1, [pc, #44]	; (13fc <zero_loop+0x2a>)
    13ce:	f04f 0200 	mov.w	r2, #0

000013d2 <zero_loop>:
    13d2:	4288      	cmp	r0, r1
    13d4:	bfb8      	it	lt
    13d6:	f840 2b04 	strlt.w	r2, [r0], #4
    13da:	f6ff affa 	blt.w	13d2 <zero_loop>
    13de:	f7fe ff2b 	bl	238 <SystemInit>
    13e2:	e8bd 4010 	ldmia.w	sp!, {r4, lr}
    13e6:	f7ff bf3d 	b.w	1264 <main>
    13ea:	bf00      	nop
    13ec:	10000000 	.word	0x10000000
    13f0:	1000003c 	.word	0x1000003c
    13f4:	000022f0 	.word	0x000022f0
    13f8:	1000003c 	.word	0x1000003c
    13fc:	10000060 	.word	0x10000060

00001400 <strrev>:
    1400:	b5f8      	push	{r3, r4, r5, r6, r7, lr}
    1402:	4607      	mov	r7, r0
    1404:	b1f0      	cbz	r0, 1444 <strrev+0x44>
    1406:	7804      	ldrb	r4, [r0, #0]
    1408:	b1e4      	cbz	r4, 1444 <strrev+0x44>
    140a:	f000 fe3d 	bl	2088 <strlen>
    140e:	3801      	subs	r0, #1
    1410:	183a      	adds	r2, r7, r0
    1412:	4297      	cmp	r7, r2
    1414:	d216      	bcs.n	1444 <strrev+0x44>
    1416:	1c7b      	adds	r3, r7, #1
    1418:	3a01      	subs	r2, #1
    141a:	e001      	b.n	1420 <strrev+0x20>
    141c:	f813 4c01 	ldrb.w	r4, [r3, #-1]
    1420:	7851      	ldrb	r1, [r2, #1]
    1422:	4615      	mov	r5, r2
    1424:	4061      	eors	r1, r4
    1426:	f803 1c01 	strb.w	r1, [r3, #-1]
    142a:	7856      	ldrb	r6, [r2, #1]
    142c:	461c      	mov	r4, r3
    142e:	4071      	eors	r1, r6
    1430:	7051      	strb	r1, [r2, #1]
    1432:	f813 6c01 	ldrb.w	r6, [r3, #-1]
    1436:	3a01      	subs	r2, #1
    1438:	4071      	eors	r1, r6
    143a:	f803 1c01 	strb.w	r1, [r3, #-1]
    143e:	3301      	adds	r3, #1
    1440:	42a5      	cmp	r5, r4
    1442:	d8eb      	bhi.n	141c <strrev+0x1c>
    1444:	4638      	mov	r0, r7
    1446:	bdf8      	pop	{r3, r4, r5, r6, r7, pc}

00001448 <itoa>:
    1448:	b4f0      	push	{r4, r5, r6, r7}
    144a:	ea80 74e0 	eor.w	r4, r0, r0, asr #31
    144e:	eba4 74e0 	sub.w	r4, r4, r0, asr #31
    1452:	2500      	movs	r5, #0
    1454:	4f0b      	ldr	r7, [pc, #44]	; (1484 <itoa+0x3c>)
    1456:	e000      	b.n	145a <itoa+0x12>
    1458:	4635      	mov	r5, r6
    145a:	fb94 f3f2 	sdiv	r3, r4, r2
    145e:	fb02 4413 	mls	r4, r2, r3, r4
    1462:	5d3c      	ldrb	r4, [r7, r4]
    1464:	1c6e      	adds	r6, r5, #1
    1466:	554c      	strb	r4, [r1, r5]
    1468:	1e1c      	subs	r4, r3, #0
    146a:	dcf5      	bgt.n	1458 <itoa+0x10>
    146c:	2800      	cmp	r0, #0
    146e:	da02      	bge.n	1476 <itoa+0x2e>
    1470:	232d      	movs	r3, #45	; 0x2d
    1472:	558b      	strb	r3, [r1, r6]
    1474:	1cae      	adds	r6, r5, #2
    1476:	2300      	movs	r3, #0
    1478:	4608      	mov	r0, r1
    147a:	558b      	strb	r3, [r1, r6]
    147c:	bcf0      	pop	{r4, r5, r6, r7}
    147e:	f7ff bfbf 	b.w	1400 <strrev>
    1482:	bf00      	nop
    1484:	000022dc 	.word	0x000022dc

00001488 <uart1Init>:
    1488:	b5f0      	push	{r4, r5, r6, r7, lr}
    148a:	b087      	sub	sp, #28
    148c:	2500      	movs	r5, #0
    148e:	2601      	movs	r6, #1
    1490:	230f      	movs	r3, #15
    1492:	2702      	movs	r7, #2
    1494:	a802      	add	r0, sp, #8
    1496:	f88d 3009 	strb.w	r3, [sp, #9]
    149a:	f88d 5008 	strb.w	r5, [sp, #8]
    149e:	f88d 600a 	strb.w	r6, [sp, #10]
    14a2:	f88d 500c 	strb.w	r5, [sp, #12]
    14a6:	f88d 700b 	strb.w	r7, [sp, #11]
    14aa:	f240 0438 	movw	r4, #56	; 0x38
    14ae:	f000 f851 	bl	1554 <PINSEL_ConfigPin>
    14b2:	2310      	movs	r3, #16
    14b4:	a802      	add	r0, sp, #8
    14b6:	f2c1 0400 	movt	r4, #4096	; 0x1000
    14ba:	f88d 3009 	strb.w	r3, [sp, #9]
    14be:	f88d 5008 	strb.w	r5, [sp, #8]
    14c2:	f88d 600a 	strb.w	r6, [sp, #10]
    14c6:	f88d 500c 	strb.w	r5, [sp, #12]
    14ca:	f88d 700b 	strb.w	r7, [sp, #11]
    14ce:	f000 f841 	bl	1554 <PINSEL_ConfigPin>
    14d2:	a804      	add	r0, sp, #16
    14d4:	f7ff f8f2 	bl	6bc <UART_ConfigStructInit>
    14d8:	f44f 33e1 	mov.w	r3, #115200	; 0x1c200
    14dc:	a904      	add	r1, sp, #16
    14de:	6820      	ldr	r0, [r4, #0]
    14e0:	9304      	str	r3, [sp, #16]
    14e2:	f7fe ff39 	bl	358 <UART_Init>
    14e6:	a801      	add	r0, sp, #4
    14e8:	f7ff f9e4 	bl	8b4 <UART_FIFOConfigStructInit>
    14ec:	6820      	ldr	r0, [r4, #0]
    14ee:	a901      	add	r1, sp, #4
    14f0:	f7ff f980 	bl	7f4 <UART_FIFOConfig>
    14f4:	6820      	ldr	r0, [r4, #0]
    14f6:	4631      	mov	r1, r6
    14f8:	f7ff f9e4 	bl	8c4 <UART_TxCmd>
    14fc:	b007      	add	sp, #28
    14fe:	bdf0      	pop	{r4, r5, r6, r7, pc}

00001500 <term1PutText>:
    1500:	b510      	push	{r4, lr}
    1502:	4604      	mov	r4, r0
    1504:	f000 fdc0 	bl	2088 <strlen>
    1508:	f240 0338 	movw	r3, #56	; 0x38
    150c:	f2c1 0300 	movt	r3, #4096	; 0x1000
    1510:	4602      	mov	r2, r0
    1512:	6818      	ldr	r0, [r3, #0]
    1514:	4621      	mov	r1, r4
    1516:	2301      	movs	r3, #1
    1518:	e8bd 4010 	ldmia.w	sp!, {r4, lr}
    151c:	f7ff b938 	b.w	790 <UART_Send>

00001520 <term1PutValue>:
    1520:	b510      	push	{r4, lr}
    1522:	b0a0      	sub	sp, #128	; 0x80
    1524:	460c      	mov	r4, r1
    1526:	220a      	movs	r2, #10
    1528:	4669      	mov	r1, sp
    152a:	f7ff ff8d 	bl	1448 <itoa>
    152e:	4668      	mov	r0, sp
    1530:	f7ff ffe6 	bl	1500 <term1PutText>
    1534:	b924      	cbnz	r4, 1540 <term1PutValue+0x20>
    1536:	4804      	ldr	r0, [pc, #16]	; (1548 <term1PutValue+0x28>)
    1538:	f7ff ffe2 	bl	1500 <term1PutText>
    153c:	b020      	add	sp, #128	; 0x80
    153e:	bd10      	pop	{r4, pc}
    1540:	4802      	ldr	r0, [pc, #8]	; (154c <term1PutValue+0x2c>)
    1542:	f7ff ffdd 	bl	1500 <term1PutText>
    1546:	e7f9      	b.n	153c <term1PutValue+0x1c>
    1548:	000022ec 	.word	0x000022ec
    154c:	000022e8 	.word	0x000022e8

00001550 <check_failed>:
    1550:	e7fe      	b.n	1550 <check_failed>
    1552:	bf00      	nop

00001554 <PINSEL_ConfigPin>:
    1554:	b430      	push	{r4, r5}
    1556:	7802      	ldrb	r2, [r0, #0]
    1558:	7843      	ldrb	r3, [r0, #1]
    155a:	0052      	lsls	r2, r2, #1
    155c:	2b0f      	cmp	r3, #15
    155e:	7885      	ldrb	r5, [r0, #2]
    1560:	d901      	bls.n	1566 <PINSEL_ConfigPin+0x12>
    1562:	3b10      	subs	r3, #16
    1564:	3201      	adds	r2, #1
    1566:	005b      	lsls	r3, r3, #1
    1568:	2403      	movs	r4, #3
    156a:	fa04 f403 	lsl.w	r4, r4, r3
    156e:	fa05 f303 	lsl.w	r3, r5, r3
    1572:	0092      	lsls	r2, r2, #2
    1574:	f102 4280 	add.w	r2, r2, #1073741824	; 0x40000000
    1578:	f502 3230 	add.w	r2, r2, #180224	; 0x2c000
    157c:	6811      	ldr	r1, [r2, #0]
    157e:	ea21 0104 	bic.w	r1, r1, r4
    1582:	430b      	orrs	r3, r1
    1584:	6013      	str	r3, [r2, #0]
    1586:	7803      	ldrb	r3, [r0, #0]
    1588:	7842      	ldrb	r2, [r0, #1]
    158a:	005b      	lsls	r3, r3, #1
    158c:	2a0f      	cmp	r2, #15
    158e:	78c1      	ldrb	r1, [r0, #3]
    1590:	d901      	bls.n	1596 <PINSEL_ConfigPin+0x42>
    1592:	3a10      	subs	r2, #16
    1594:	3301      	adds	r3, #1
    1596:	0052      	lsls	r2, r2, #1
    1598:	2503      	movs	r5, #3
    159a:	fa05 f502 	lsl.w	r5, r5, r2
    159e:	fa01 f202 	lsl.w	r2, r1, r2
    15a2:	f24c 0140 	movw	r1, #49216	; 0xc040
    15a6:	f2c4 0102 	movt	r1, #16386	; 0x4002
    15aa:	f851 4023 	ldr.w	r4, [r1, r3, lsl #2]
    15ae:	ea24 0405 	bic.w	r4, r4, r5
    15b2:	4322      	orrs	r2, r4
    15b4:	f841 2023 	str.w	r2, [r1, r3, lsl #2]
    15b8:	7903      	ldrb	r3, [r0, #4]
    15ba:	7802      	ldrb	r2, [r0, #0]
    15bc:	2b01      	cmp	r3, #1
    15be:	7841      	ldrb	r1, [r0, #1]
    15c0:	d00e      	beq.n	15e0 <PINSEL_ConfigPin+0x8c>
    15c2:	2001      	movs	r0, #1
    15c4:	fa00 f101 	lsl.w	r1, r0, r1
    15c8:	f24c 0368 	movw	r3, #49256	; 0xc068
    15cc:	f2c4 0302 	movt	r3, #16386	; 0x4002
    15d0:	f853 0022 	ldr.w	r0, [r3, r2, lsl #2]
    15d4:	ea20 0001 	bic.w	r0, r0, r1
    15d8:	f843 0022 	str.w	r0, [r3, r2, lsl #2]
    15dc:	bc30      	pop	{r4, r5}
    15de:	4770      	bx	lr
    15e0:	fa03 f301 	lsl.w	r3, r3, r1
    15e4:	f24c 0068 	movw	r0, #49256	; 0xc068
    15e8:	f2c4 0002 	movt	r0, #16386	; 0x4002
    15ec:	f850 4022 	ldr.w	r4, [r0, r2, lsl #2]
    15f0:	431c      	orrs	r4, r3
    15f2:	f840 4022 	str.w	r4, [r0, r2, lsl #2]
    15f6:	e7f1      	b.n	15dc <PINSEL_ConfigPin+0x88>

000015f8 <initTX>:
    15f8:	e92d 43f0 	stmdb	sp!, {r4, r5, r6, r7, r8, r9, lr}
    15fc:	b087      	sub	sp, #28
    15fe:	2400      	movs	r4, #0
    1600:	2601      	movs	r6, #1
    1602:	2704      	movs	r7, #4
    1604:	4681      	mov	r9, r0
    1606:	f04f 0802 	mov.w	r8, #2
    160a:	a802      	add	r0, sp, #8
    160c:	f88d 4008 	strb.w	r4, [sp, #8]
    1610:	f88d 600a 	strb.w	r6, [sp, #10]
    1614:	f88d 400c 	strb.w	r4, [sp, #12]
    1618:	f88d 800b 	strb.w	r8, [sp, #11]
    161c:	f88d 7009 	strb.w	r7, [sp, #9]
    1620:	f7ff ff98 	bl	1554 <PINSEL_ConfigPin>
    1624:	2305      	movs	r3, #5
    1626:	a802      	add	r0, sp, #8
    1628:	f88d 3009 	strb.w	r3, [sp, #9]
    162c:	f7ff ff92 	bl	1554 <PINSEL_ConfigPin>
    1630:	2306      	movs	r3, #6
    1632:	a802      	add	r0, sp, #8
    1634:	f88d 3009 	strb.w	r3, [sp, #9]
    1638:	f7ff ff8c 	bl	1554 <PINSEL_ConfigPin>
    163c:	2307      	movs	r3, #7
    163e:	a802      	add	r0, sp, #8
    1640:	f88d 3009 	strb.w	r3, [sp, #9]
    1644:	f7ff ff86 	bl	1554 <PINSEL_ConfigPin>
    1648:	2308      	movs	r3, #8
    164a:	a802      	add	r0, sp, #8
    164c:	f88d 3009 	strb.w	r3, [sp, #9]
    1650:	f44f 4500 	mov.w	r5, #32768	; 0x8000
    1654:	f7ff ff7e 	bl	1554 <PINSEL_ConfigPin>
    1658:	2309      	movs	r3, #9
    165a:	a802      	add	r0, sp, #8
    165c:	f2c4 050a 	movt	r5, #16394	; 0x400a
    1660:	f88d 3009 	strb.w	r3, [sp, #9]
    1664:	f7ff ff76 	bl	1554 <PINSEL_ConfigPin>
    1668:	231d      	movs	r3, #29
    166a:	a802      	add	r0, sp, #8
    166c:	f88d 3009 	strb.w	r3, [sp, #9]
    1670:	f88d 7008 	strb.w	r7, [sp, #8]
    1674:	f88d 600a 	strb.w	r6, [sp, #10]
    1678:	f88d 400c 	strb.w	r4, [sp, #12]
    167c:	f88d 800b 	strb.w	r8, [sp, #11]
    1680:	f7ff ff68 	bl	1554 <PINSEL_ConfigPin>
    1684:	4628      	mov	r0, r5
    1686:	9404      	str	r4, [sp, #16]
    1688:	9405      	str	r4, [sp, #20]
    168a:	f88d 6010 	strb.w	r6, [sp, #16]
    168e:	f88d 6012 	strb.w	r6, [sp, #18]
    1692:	f88d 6013 	strb.w	r6, [sp, #19]
    1696:	f7ff f94d 	bl	934 <I2S_Init>
    169a:	aa04      	add	r2, sp, #16
    169c:	4628      	mov	r0, r5
    169e:	4621      	mov	r1, r4
    16a0:	f7ff f962 	bl	968 <I2S_Config>
    16a4:	4628      	mov	r0, r5
    16a6:	4621      	mov	r1, r4
    16a8:	f7ff f9ca 	bl	a40 <I2S_Stop>
    16ac:	4649      	mov	r1, r9
    16ae:	4622      	mov	r2, r4
    16b0:	4628      	mov	r0, r5
    16b2:	f7ff f9f5 	bl	aa0 <I2S_FreqConfig>
    16b6:	f240 035c 	movw	r3, #92	; 0x5c
    16ba:	f2c1 0300 	movt	r3, #4096	; 0x1000
    16be:	4619      	mov	r1, r3
    16c0:	4628      	mov	r0, r5
    16c2:	4622      	mov	r2, r4
    16c4:	701c      	strb	r4, [r3, #0]
    16c6:	705c      	strb	r4, [r3, #1]
    16c8:	709e      	strb	r6, [r3, #2]
    16ca:	f7ff faa3 	bl	c14 <I2S_ModeConfig>
    16ce:	eb0d 0107 	add.w	r1, sp, r7
    16d2:	4622      	mov	r2, r4
    16d4:	4628      	mov	r0, r5
    16d6:	f88d 4004 	strb.w	r4, [sp, #4]
    16da:	f88d 7005 	strb.w	r7, [sp, #5]
    16de:	f7ff fb01 	bl	ce4 <I2S_DMAConfig>
    16e2:	4628      	mov	r0, r5
    16e4:	f7ff f996 	bl	a14 <I2S_Start>
    16e8:	4628      	mov	r0, r5
    16ea:	4621      	mov	r1, r4
    16ec:	4622      	mov	r2, r4
    16ee:	4633      	mov	r3, r6
    16f0:	f7ff fb3a 	bl	d68 <I2S_DMACmd>
    16f4:	b007      	add	sp, #28
    16f6:	e8bd 83f0 	ldmia.w	sp!, {r4, r5, r6, r7, r8, r9, pc}
    16fa:	bf00      	nop

000016fc <__aeabi_uldivmod>:
    16fc:	b94b      	cbnz	r3, 1712 <__aeabi_uldivmod+0x16>
    16fe:	b942      	cbnz	r2, 1712 <__aeabi_uldivmod+0x16>
    1700:	2900      	cmp	r1, #0
    1702:	bf08      	it	eq
    1704:	2800      	cmpeq	r0, #0
    1706:	d002      	beq.n	170e <__aeabi_uldivmod+0x12>
    1708:	f04f 31ff 	mov.w	r1, #4294967295
    170c:	4608      	mov	r0, r1
    170e:	f000 b83b 	b.w	1788 <__aeabi_idiv0>
    1712:	b082      	sub	sp, #8
    1714:	46ec      	mov	ip, sp
    1716:	e92d 5000 	stmdb	sp!, {ip, lr}
    171a:	f000 f81d 	bl	1758 <__gnu_uldivmod_helper>
    171e:	f8dd e004 	ldr.w	lr, [sp, #4]
    1722:	b002      	add	sp, #8
    1724:	bc0c      	pop	{r2, r3}
    1726:	4770      	bx	lr

00001728 <__gnu_ldivmod_helper>:
    1728:	e92d 43f8 	stmdb	sp!, {r3, r4, r5, r6, r7, r8, r9, lr}
    172c:	4690      	mov	r8, r2
    172e:	4699      	mov	r9, r3
    1730:	4606      	mov	r6, r0
    1732:	460f      	mov	r7, r1
    1734:	f000 f82a 	bl	178c <__divdi3>
    1738:	9b08      	ldr	r3, [sp, #32]
    173a:	fba8 4500 	umull	r4, r5, r8, r0
    173e:	fb08 f801 	mul.w	r8, r8, r1
    1742:	fb00 8209 	mla	r2, r0, r9, r8
    1746:	1955      	adds	r5, r2, r5
    1748:	1b34      	subs	r4, r6, r4
    174a:	eb67 0505 	sbc.w	r5, r7, r5
    174e:	e9c3 4500 	strd	r4, r5, [r3]
    1752:	e8bd 83f8 	ldmia.w	sp!, {r3, r4, r5, r6, r7, r8, r9, pc}
    1756:	bf00      	nop

00001758 <__gnu_uldivmod_helper>:
    1758:	e92d 41f0 	stmdb	sp!, {r4, r5, r6, r7, r8, lr}
    175c:	4690      	mov	r8, r2
    175e:	4606      	mov	r6, r0
    1760:	460f      	mov	r7, r1
    1762:	461d      	mov	r5, r3
    1764:	f000 f9c8 	bl	1af8 <__udivdi3>
    1768:	fb00 f305 	mul.w	r3, r0, r5
    176c:	fba0 4508 	umull	r4, r5, r0, r8
    1770:	fb08 3801 	mla	r8, r8, r1, r3
    1774:	9b06      	ldr	r3, [sp, #24]
    1776:	4445      	add	r5, r8
    1778:	1b34      	subs	r4, r6, r4
    177a:	eb67 0505 	sbc.w	r5, r7, r5
    177e:	e9c3 4500 	strd	r4, r5, [r3]
    1782:	e8bd 81f0 	ldmia.w	sp!, {r4, r5, r6, r7, r8, pc}
    1786:	bf00      	nop

00001788 <__aeabi_idiv0>:
    1788:	4770      	bx	lr
    178a:	bf00      	nop

0000178c <__divdi3>:
    178c:	e92d 4ff0 	stmdb	sp!, {r4, r5, r6, r7, r8, r9, sl, fp, lr}
    1790:	2700      	movs	r7, #0
    1792:	2900      	cmp	r1, #0
    1794:	b085      	sub	sp, #20
    1796:	461c      	mov	r4, r3
    1798:	f2c0 8149 	blt.w	1a2e <__divdi3+0x2a2>
    179c:	2c00      	cmp	r4, #0
    179e:	f2c0 8141 	blt.w	1a24 <__divdi3+0x298>
    17a2:	468c      	mov	ip, r1
    17a4:	460e      	mov	r6, r1
    17a6:	4682      	mov	sl, r0
    17a8:	4691      	mov	r9, r2
    17aa:	4614      	mov	r4, r2
    17ac:	4605      	mov	r5, r0
    17ae:	4619      	mov	r1, r3
    17b0:	2b00      	cmp	r3, #0
    17b2:	d14b      	bne.n	184c <__divdi3+0xc0>
    17b4:	4562      	cmp	r2, ip
    17b6:	d959      	bls.n	186c <__divdi3+0xe0>
    17b8:	fab2 f382 	clz	r3, r2
    17bc:	b143      	cbz	r3, 17d0 <__divdi3+0x44>
    17be:	f1c3 0220 	rsb	r2, r3, #32
    17c2:	fa0c f603 	lsl.w	r6, ip, r3
    17c6:	fa20 f202 	lsr.w	r2, r0, r2
    17ca:	409c      	lsls	r4, r3
    17cc:	4316      	orrs	r6, r2
    17ce:	409d      	lsls	r5, r3
    17d0:	ea4f 4814 	mov.w	r8, r4, lsr #16
    17d4:	4630      	mov	r0, r6
    17d6:	4641      	mov	r1, r8
    17d8:	fa1f f984 	uxth.w	r9, r4
    17dc:	f000 fb18 	bl	1e10 <__aeabi_uidiv>
    17e0:	4641      	mov	r1, r8
    17e2:	4682      	mov	sl, r0
    17e4:	4630      	mov	r0, r6
    17e6:	f000 fc41 	bl	206c <__aeabi_uidivmod>
    17ea:	0c2b      	lsrs	r3, r5, #16
    17ec:	fb09 f00a 	mul.w	r0, r9, sl
    17f0:	ea43 4101 	orr.w	r1, r3, r1, lsl #16
    17f4:	4288      	cmp	r0, r1
    17f6:	d90a      	bls.n	180e <__divdi3+0x82>
    17f8:	1909      	adds	r1, r1, r4
    17fa:	f10a 32ff 	add.w	r2, sl, #4294967295
    17fe:	d205      	bcs.n	180c <__divdi3+0x80>
    1800:	4288      	cmp	r0, r1
    1802:	bf84      	itt	hi
    1804:	f1aa 0a02 	subhi.w	sl, sl, #2
    1808:	1909      	addhi	r1, r1, r4
    180a:	d800      	bhi.n	180e <__divdi3+0x82>
    180c:	4692      	mov	sl, r2
    180e:	ebc0 0b01 	rsb	fp, r0, r1
    1812:	4641      	mov	r1, r8
    1814:	4658      	mov	r0, fp
    1816:	b2ad      	uxth	r5, r5
    1818:	f000 fafa 	bl	1e10 <__aeabi_uidiv>
    181c:	4641      	mov	r1, r8
    181e:	4606      	mov	r6, r0
    1820:	4658      	mov	r0, fp
    1822:	f000 fc23 	bl	206c <__aeabi_uidivmod>
    1826:	fb09 f906 	mul.w	r9, r9, r6
    182a:	ea45 4101 	orr.w	r1, r5, r1, lsl #16
    182e:	4589      	cmp	r9, r1
    1830:	d907      	bls.n	1842 <__divdi3+0xb6>
    1832:	1e73      	subs	r3, r6, #1
    1834:	190c      	adds	r4, r1, r4
    1836:	f080 8157 	bcs.w	1ae8 <__divdi3+0x35c>
    183a:	3e02      	subs	r6, #2
    183c:	45a1      	cmp	r9, r4
    183e:	f240 8153 	bls.w	1ae8 <__divdi3+0x35c>
    1842:	ea46 400a 	orr.w	r0, r6, sl, lsl #16
    1846:	f04f 0800 	mov.w	r8, #0
    184a:	e004      	b.n	1856 <__divdi3+0xca>
    184c:	4563      	cmp	r3, ip
    184e:	d958      	bls.n	1902 <__divdi3+0x176>
    1850:	f04f 0800 	mov.w	r8, #0
    1854:	4640      	mov	r0, r8
    1856:	4602      	mov	r2, r0
    1858:	4643      	mov	r3, r8
    185a:	b117      	cbz	r7, 1862 <__divdi3+0xd6>
    185c:	4252      	negs	r2, r2
    185e:	eb63 0343 	sbc.w	r3, r3, r3, lsl #1
    1862:	4610      	mov	r0, r2
    1864:	4619      	mov	r1, r3
    1866:	b005      	add	sp, #20
    1868:	e8bd 8ff0 	ldmia.w	sp!, {r4, r5, r6, r7, r8, r9, sl, fp, pc}
    186c:	b922      	cbnz	r2, 1878 <__divdi3+0xec>
    186e:	2001      	movs	r0, #1
    1870:	4611      	mov	r1, r2
    1872:	f000 facd 	bl	1e10 <__aeabi_uidiv>
    1876:	4604      	mov	r4, r0
    1878:	fab4 f384 	clz	r3, r4
    187c:	2b00      	cmp	r3, #0
    187e:	f040 80dc 	bne.w	1a3a <__divdi3+0x2ae>
    1882:	1b36      	subs	r6, r6, r4
    1884:	ea4f 4914 	mov.w	r9, r4, lsr #16
    1888:	fa1f fa84 	uxth.w	sl, r4
    188c:	f04f 0801 	mov.w	r8, #1
    1890:	4649      	mov	r1, r9
    1892:	4630      	mov	r0, r6
    1894:	f000 fabc 	bl	1e10 <__aeabi_uidiv>
    1898:	4649      	mov	r1, r9
    189a:	4683      	mov	fp, r0
    189c:	4630      	mov	r0, r6
    189e:	f000 fbe5 	bl	206c <__aeabi_uidivmod>
    18a2:	0c2b      	lsrs	r3, r5, #16
    18a4:	fb0a f00b 	mul.w	r0, sl, fp
    18a8:	ea43 4101 	orr.w	r1, r3, r1, lsl #16
    18ac:	4288      	cmp	r0, r1
    18ae:	d90b      	bls.n	18c8 <__divdi3+0x13c>
    18b0:	1909      	adds	r1, r1, r4
    18b2:	f10b 33ff 	add.w	r3, fp, #4294967295
    18b6:	f080 8115 	bcs.w	1ae4 <__divdi3+0x358>
    18ba:	4288      	cmp	r0, r1
    18bc:	bf84      	itt	hi
    18be:	f1ab 0b02 	subhi.w	fp, fp, #2
    18c2:	1909      	addhi	r1, r1, r4
    18c4:	f240 810e 	bls.w	1ae4 <__divdi3+0x358>
    18c8:	1a0b      	subs	r3, r1, r0
    18ca:	4649      	mov	r1, r9
    18cc:	4618      	mov	r0, r3
    18ce:	9301      	str	r3, [sp, #4]
    18d0:	f000 fa9e 	bl	1e10 <__aeabi_uidiv>
    18d4:	9b01      	ldr	r3, [sp, #4]
    18d6:	4649      	mov	r1, r9
    18d8:	b2ad      	uxth	r5, r5
    18da:	4606      	mov	r6, r0
    18dc:	4618      	mov	r0, r3
    18de:	f000 fbc5 	bl	206c <__aeabi_uidivmod>
    18e2:	fb0a fa06 	mul.w	sl, sl, r6
    18e6:	ea45 4101 	orr.w	r1, r5, r1, lsl #16
    18ea:	458a      	cmp	sl, r1
    18ec:	d906      	bls.n	18fc <__divdi3+0x170>
    18ee:	1e73      	subs	r3, r6, #1
    18f0:	190c      	adds	r4, r1, r4
    18f2:	d202      	bcs.n	18fa <__divdi3+0x16e>
    18f4:	3e02      	subs	r6, #2
    18f6:	45a2      	cmp	sl, r4
    18f8:	d800      	bhi.n	18fc <__divdi3+0x170>
    18fa:	461e      	mov	r6, r3
    18fc:	ea46 400b 	orr.w	r0, r6, fp, lsl #16
    1900:	e7a9      	b.n	1856 <__divdi3+0xca>
    1902:	fab3 f483 	clz	r4, r3
    1906:	2c00      	cmp	r4, #0
    1908:	f000 80e4 	beq.w	1ad4 <__divdi3+0x348>
    190c:	f1c4 0320 	rsb	r3, r4, #32
    1910:	fa01 f104 	lsl.w	r1, r1, r4
    1914:	fa22 fa03 	lsr.w	sl, r2, r3
    1918:	fa2c fb03 	lsr.w	fp, ip, r3
    191c:	ea4a 0a01 	orr.w	sl, sl, r1
    1920:	fa20 f803 	lsr.w	r8, r0, r3
    1924:	fa0c fc04 	lsl.w	ip, ip, r4
    1928:	4658      	mov	r0, fp
    192a:	ea4f 461a 	mov.w	r6, sl, lsr #16
    192e:	ea48 080c 	orr.w	r8, r8, ip
    1932:	4631      	mov	r1, r6
    1934:	fa02 f904 	lsl.w	r9, r2, r4
    1938:	f8cd 900c 	str.w	r9, [sp, #12]
    193c:	f000 fa68 	bl	1e10 <__aeabi_uidiv>
    1940:	4631      	mov	r1, r6
    1942:	4681      	mov	r9, r0
    1944:	4658      	mov	r0, fp
    1946:	f000 fb91 	bl	206c <__aeabi_uidivmod>
    194a:	fa1f fc8a 	uxth.w	ip, sl
    194e:	ea4f 4318 	mov.w	r3, r8, lsr #16
    1952:	fb0c f009 	mul.w	r0, ip, r9
    1956:	ea43 4301 	orr.w	r3, r3, r1, lsl #16
    195a:	4298      	cmp	r0, r3
    195c:	d90c      	bls.n	1978 <__divdi3+0x1ec>
    195e:	eb13 030a 	adds.w	r3, r3, sl
    1962:	f109 31ff 	add.w	r1, r9, #4294967295
    1966:	f080 80c3 	bcs.w	1af0 <__divdi3+0x364>
    196a:	4298      	cmp	r0, r3
    196c:	bf84      	itt	hi
    196e:	f1a9 0902 	subhi.w	r9, r9, #2
    1972:	4453      	addhi	r3, sl
    1974:	f240 80bc 	bls.w	1af0 <__divdi3+0x364>
    1978:	1a1b      	subs	r3, r3, r0
    197a:	4631      	mov	r1, r6
    197c:	4618      	mov	r0, r3
    197e:	f8cd c008 	str.w	ip, [sp, #8]
    1982:	9301      	str	r3, [sp, #4]
    1984:	f000 fa44 	bl	1e10 <__aeabi_uidiv>
    1988:	9b01      	ldr	r3, [sp, #4]
    198a:	4631      	mov	r1, r6
    198c:	fa1f f888 	uxth.w	r8, r8
    1990:	4683      	mov	fp, r0
    1992:	4618      	mov	r0, r3
    1994:	f000 fb6a 	bl	206c <__aeabi_uidivmod>
    1998:	f8dd c008 	ldr.w	ip, [sp, #8]
    199c:	fb0c f30b 	mul.w	r3, ip, fp
    19a0:	ea48 4101 	orr.w	r1, r8, r1, lsl #16
    19a4:	428b      	cmp	r3, r1
    19a6:	d90c      	bls.n	19c2 <__divdi3+0x236>
    19a8:	eb11 010a 	adds.w	r1, r1, sl
    19ac:	f10b 30ff 	add.w	r0, fp, #4294967295
    19b0:	f080 809c 	bcs.w	1aec <__divdi3+0x360>
    19b4:	428b      	cmp	r3, r1
    19b6:	bf84      	itt	hi
    19b8:	f1ab 0b02 	subhi.w	fp, fp, #2
    19bc:	4451      	addhi	r1, sl
    19be:	f240 8095 	bls.w	1aec <__divdi3+0x360>
    19c2:	9e03      	ldr	r6, [sp, #12]
    19c4:	ea4b 4009 	orr.w	r0, fp, r9, lsl #16
    19c8:	1ac9      	subs	r1, r1, r3
    19ca:	fa1f fc80 	uxth.w	ip, r0
    19ce:	b2b2      	uxth	r2, r6
    19d0:	ea4f 4916 	mov.w	r9, r6, lsr #16
    19d4:	0c06      	lsrs	r6, r0, #16
    19d6:	fb02 f80c 	mul.w	r8, r2, ip
    19da:	fb02 f206 	mul.w	r2, r2, r6
    19de:	fb09 230c 	mla	r3, r9, ip, r2
    19e2:	fb09 f906 	mul.w	r9, r9, r6
    19e6:	eb03 4318 	add.w	r3, r3, r8, lsr #16
    19ea:	429a      	cmp	r2, r3
    19ec:	bf88      	it	hi
    19ee:	f509 3980 	addhi.w	r9, r9, #65536	; 0x10000
    19f2:	eb09 4913 	add.w	r9, r9, r3, lsr #16
    19f6:	4549      	cmp	r1, r9
    19f8:	d310      	bcc.n	1a1c <__divdi3+0x290>
    19fa:	fa1f f888 	uxth.w	r8, r8
    19fe:	bf14      	ite	ne
    1a00:	2200      	movne	r2, #0
    1a02:	2201      	moveq	r2, #1
    1a04:	fa05 f404 	lsl.w	r4, r5, r4
    1a08:	eb08 4303 	add.w	r3, r8, r3, lsl #16
    1a0c:	429c      	cmp	r4, r3
    1a0e:	bf2c      	ite	cs
    1a10:	2300      	movcs	r3, #0
    1a12:	f002 0301 	andcc.w	r3, r2, #1
    1a16:	2b00      	cmp	r3, #0
    1a18:	f43f af15 	beq.w	1846 <__divdi3+0xba>
    1a1c:	3801      	subs	r0, #1
    1a1e:	f04f 0800 	mov.w	r8, #0
    1a22:	e718      	b.n	1856 <__divdi3+0xca>
    1a24:	4252      	negs	r2, r2
    1a26:	eb63 0343 	sbc.w	r3, r3, r3, lsl #1
    1a2a:	43ff      	mvns	r7, r7
    1a2c:	e6b9      	b.n	17a2 <__divdi3+0x16>
    1a2e:	4240      	negs	r0, r0
    1a30:	eb61 0141 	sbc.w	r1, r1, r1, lsl #1
    1a34:	f04f 37ff 	mov.w	r7, #4294967295
    1a38:	e6b0      	b.n	179c <__divdi3+0x10>
    1a3a:	409c      	lsls	r4, r3
    1a3c:	f1c3 0b20 	rsb	fp, r3, #32
    1a40:	fa26 f80b 	lsr.w	r8, r6, fp
    1a44:	fa06 f603 	lsl.w	r6, r6, r3
    1a48:	ea4f 4914 	mov.w	r9, r4, lsr #16
    1a4c:	4640      	mov	r0, r8
    1a4e:	4649      	mov	r1, r9
    1a50:	fa25 fb0b 	lsr.w	fp, r5, fp
    1a54:	409d      	lsls	r5, r3
    1a56:	f000 f9db 	bl	1e10 <__aeabi_uidiv>
    1a5a:	4649      	mov	r1, r9
    1a5c:	fa1f fa84 	uxth.w	sl, r4
    1a60:	ea4b 0b06 	orr.w	fp, fp, r6
    1a64:	4603      	mov	r3, r0
    1a66:	4640      	mov	r0, r8
    1a68:	9301      	str	r3, [sp, #4]
    1a6a:	f000 faff 	bl	206c <__aeabi_uidivmod>
    1a6e:	9b01      	ldr	r3, [sp, #4]
    1a70:	ea4f 421b 	mov.w	r2, fp, lsr #16
    1a74:	fb0a f003 	mul.w	r0, sl, r3
    1a78:	ea42 4101 	orr.w	r1, r2, r1, lsl #16
    1a7c:	4288      	cmp	r0, r1
    1a7e:	d906      	bls.n	1a8e <__divdi3+0x302>
    1a80:	1e5a      	subs	r2, r3, #1
    1a82:	1909      	adds	r1, r1, r4
    1a84:	d236      	bcs.n	1af4 <__divdi3+0x368>
    1a86:	4288      	cmp	r0, r1
    1a88:	d934      	bls.n	1af4 <__divdi3+0x368>
    1a8a:	3b02      	subs	r3, #2
    1a8c:	1909      	adds	r1, r1, r4
    1a8e:	1a0e      	subs	r6, r1, r0
    1a90:	4649      	mov	r1, r9
    1a92:	4630      	mov	r0, r6
    1a94:	9301      	str	r3, [sp, #4]
    1a96:	f000 f9bb 	bl	1e10 <__aeabi_uidiv>
    1a9a:	4649      	mov	r1, r9
    1a9c:	fa1f fb8b 	uxth.w	fp, fp
    1aa0:	4680      	mov	r8, r0
    1aa2:	4630      	mov	r0, r6
    1aa4:	f000 fae2 	bl	206c <__aeabi_uidivmod>
    1aa8:	9b01      	ldr	r3, [sp, #4]
    1aaa:	fb0a f608 	mul.w	r6, sl, r8
    1aae:	ea4b 4101 	orr.w	r1, fp, r1, lsl #16
    1ab2:	428e      	cmp	r6, r1
    1ab4:	d90a      	bls.n	1acc <__divdi3+0x340>
    1ab6:	1909      	adds	r1, r1, r4
    1ab8:	f108 32ff 	add.w	r2, r8, #4294967295
    1abc:	d205      	bcs.n	1aca <__divdi3+0x33e>
    1abe:	428e      	cmp	r6, r1
    1ac0:	bf84      	itt	hi
    1ac2:	f1a8 0802 	subhi.w	r8, r8, #2
    1ac6:	1909      	addhi	r1, r1, r4
    1ac8:	d800      	bhi.n	1acc <__divdi3+0x340>
    1aca:	4690      	mov	r8, r2
    1acc:	1b8e      	subs	r6, r1, r6
    1ace:	ea48 4803 	orr.w	r8, r8, r3, lsl #16
    1ad2:	e6dd      	b.n	1890 <__divdi3+0x104>
    1ad4:	2001      	movs	r0, #1
    1ad6:	4563      	cmp	r3, ip
    1ad8:	bf28      	it	cs
    1ada:	4552      	cmpcs	r2, sl
    1adc:	46a0      	mov	r8, r4
    1ade:	f67f aeba 	bls.w	1856 <__divdi3+0xca>
    1ae2:	e6b5      	b.n	1850 <__divdi3+0xc4>
    1ae4:	469b      	mov	fp, r3
    1ae6:	e6ef      	b.n	18c8 <__divdi3+0x13c>
    1ae8:	461e      	mov	r6, r3
    1aea:	e6aa      	b.n	1842 <__divdi3+0xb6>
    1aec:	4683      	mov	fp, r0
    1aee:	e768      	b.n	19c2 <__divdi3+0x236>
    1af0:	4689      	mov	r9, r1
    1af2:	e741      	b.n	1978 <__divdi3+0x1ec>
    1af4:	4613      	mov	r3, r2
    1af6:	e7ca      	b.n	1a8e <__divdi3+0x302>

00001af8 <__udivdi3>:
    1af8:	e92d 4ff0 	stmdb	sp!, {r4, r5, r6, r7, r8, r9, sl, fp, lr}
    1afc:	4606      	mov	r6, r0
    1afe:	b083      	sub	sp, #12
    1b00:	460d      	mov	r5, r1
    1b02:	4614      	mov	r4, r2
    1b04:	4607      	mov	r7, r0
    1b06:	4688      	mov	r8, r1
    1b08:	2b00      	cmp	r3, #0
    1b0a:	d14a      	bne.n	1ba2 <__udivdi3+0xaa>
    1b0c:	428a      	cmp	r2, r1
    1b0e:	d955      	bls.n	1bbc <__udivdi3+0xc4>
    1b10:	fab2 f382 	clz	r3, r2
    1b14:	b14b      	cbz	r3, 1b2a <__udivdi3+0x32>
    1b16:	f1c3 0220 	rsb	r2, r3, #32
    1b1a:	fa01 f803 	lsl.w	r8, r1, r3
    1b1e:	fa20 f202 	lsr.w	r2, r0, r2
    1b22:	409c      	lsls	r4, r3
    1b24:	ea42 0808 	orr.w	r8, r2, r8
    1b28:	409f      	lsls	r7, r3
    1b2a:	0c25      	lsrs	r5, r4, #16
    1b2c:	4640      	mov	r0, r8
    1b2e:	4629      	mov	r1, r5
    1b30:	fa1f fa84 	uxth.w	sl, r4
    1b34:	f000 f96c 	bl	1e10 <__aeabi_uidiv>
    1b38:	4629      	mov	r1, r5
    1b3a:	4681      	mov	r9, r0
    1b3c:	4640      	mov	r0, r8
    1b3e:	f000 fa95 	bl	206c <__aeabi_uidivmod>
    1b42:	0c3b      	lsrs	r3, r7, #16
    1b44:	fb0a f009 	mul.w	r0, sl, r9
    1b48:	ea43 4101 	orr.w	r1, r3, r1, lsl #16
    1b4c:	4288      	cmp	r0, r1
    1b4e:	d90a      	bls.n	1b66 <__udivdi3+0x6e>
    1b50:	1909      	adds	r1, r1, r4
    1b52:	f109 32ff 	add.w	r2, r9, #4294967295
    1b56:	d205      	bcs.n	1b64 <__udivdi3+0x6c>
    1b58:	4288      	cmp	r0, r1
    1b5a:	bf84      	itt	hi
    1b5c:	f1a9 0902 	subhi.w	r9, r9, #2
    1b60:	1909      	addhi	r1, r1, r4
    1b62:	d800      	bhi.n	1b66 <__udivdi3+0x6e>
    1b64:	4691      	mov	r9, r2
    1b66:	ebc0 0801 	rsb	r8, r0, r1
    1b6a:	4629      	mov	r1, r5
    1b6c:	4640      	mov	r0, r8
    1b6e:	b2bf      	uxth	r7, r7
    1b70:	f000 f94e 	bl	1e10 <__aeabi_uidiv>
    1b74:	4629      	mov	r1, r5
    1b76:	4606      	mov	r6, r0
    1b78:	4640      	mov	r0, r8
    1b7a:	f000 fa77 	bl	206c <__aeabi_uidivmod>
    1b7e:	fb0a fa06 	mul.w	sl, sl, r6
    1b82:	ea47 4101 	orr.w	r1, r7, r1, lsl #16
    1b86:	458a      	cmp	sl, r1
    1b88:	d907      	bls.n	1b9a <__udivdi3+0xa2>
    1b8a:	1e73      	subs	r3, r6, #1
    1b8c:	190c      	adds	r4, r1, r4
    1b8e:	f080 8122 	bcs.w	1dd6 <__udivdi3+0x2de>
    1b92:	3e02      	subs	r6, #2
    1b94:	45a2      	cmp	sl, r4
    1b96:	f240 811e 	bls.w	1dd6 <__udivdi3+0x2de>
    1b9a:	ea46 4009 	orr.w	r0, r6, r9, lsl #16
    1b9e:	2600      	movs	r6, #0
    1ba0:	e058      	b.n	1c54 <__udivdi3+0x15c>
    1ba2:	428b      	cmp	r3, r1
    1ba4:	d854      	bhi.n	1c50 <__udivdi3+0x158>
    1ba6:	fab3 f483 	clz	r4, r3
    1baa:	2c00      	cmp	r4, #0
    1bac:	d156      	bne.n	1c5c <__udivdi3+0x164>
    1bae:	428b      	cmp	r3, r1
    1bb0:	bf28      	it	cs
    1bb2:	4282      	cmpcs	r2, r0
    1bb4:	d84c      	bhi.n	1c50 <__udivdi3+0x158>
    1bb6:	4626      	mov	r6, r4
    1bb8:	2001      	movs	r0, #1
    1bba:	e04b      	b.n	1c54 <__udivdi3+0x15c>
    1bbc:	b922      	cbnz	r2, 1bc8 <__udivdi3+0xd0>
    1bbe:	2001      	movs	r0, #1
    1bc0:	4611      	mov	r1, r2
    1bc2:	f000 f925 	bl	1e10 <__aeabi_uidiv>
    1bc6:	4604      	mov	r4, r0
    1bc8:	fab4 f384 	clz	r3, r4
    1bcc:	2b00      	cmp	r3, #0
    1bce:	f040 80b9 	bne.w	1d44 <__udivdi3+0x24c>
    1bd2:	1b2d      	subs	r5, r5, r4
    1bd4:	ea4f 4814 	mov.w	r8, r4, lsr #16
    1bd8:	fa1f fa84 	uxth.w	sl, r4
    1bdc:	2601      	movs	r6, #1
    1bde:	4641      	mov	r1, r8
    1be0:	4628      	mov	r0, r5
    1be2:	f000 f915 	bl	1e10 <__aeabi_uidiv>
    1be6:	4641      	mov	r1, r8
    1be8:	4681      	mov	r9, r0
    1bea:	4628      	mov	r0, r5
    1bec:	f000 fa3e 	bl	206c <__aeabi_uidivmod>
    1bf0:	0c3b      	lsrs	r3, r7, #16
    1bf2:	fb0a f009 	mul.w	r0, sl, r9
    1bf6:	ea43 4101 	orr.w	r1, r3, r1, lsl #16
    1bfa:	4288      	cmp	r0, r1
    1bfc:	d90b      	bls.n	1c16 <__udivdi3+0x11e>
    1bfe:	1909      	adds	r1, r1, r4
    1c00:	f109 33ff 	add.w	r3, r9, #4294967295
    1c04:	f080 80e9 	bcs.w	1dda <__udivdi3+0x2e2>
    1c08:	4288      	cmp	r0, r1
    1c0a:	bf84      	itt	hi
    1c0c:	f1a9 0902 	subhi.w	r9, r9, #2
    1c10:	1909      	addhi	r1, r1, r4
    1c12:	f240 80e2 	bls.w	1dda <__udivdi3+0x2e2>
    1c16:	ebc0 0b01 	rsb	fp, r0, r1
    1c1a:	4641      	mov	r1, r8
    1c1c:	4658      	mov	r0, fp
    1c1e:	b2bf      	uxth	r7, r7
    1c20:	f000 f8f6 	bl	1e10 <__aeabi_uidiv>
    1c24:	4641      	mov	r1, r8
    1c26:	4605      	mov	r5, r0
    1c28:	4658      	mov	r0, fp
    1c2a:	f000 fa1f 	bl	206c <__aeabi_uidivmod>
    1c2e:	fb0a fa05 	mul.w	sl, sl, r5
    1c32:	ea47 4101 	orr.w	r1, r7, r1, lsl #16
    1c36:	458a      	cmp	sl, r1
    1c38:	d907      	bls.n	1c4a <__udivdi3+0x152>
    1c3a:	1e6b      	subs	r3, r5, #1
    1c3c:	190c      	adds	r4, r1, r4
    1c3e:	f080 80ce 	bcs.w	1dde <__udivdi3+0x2e6>
    1c42:	3d02      	subs	r5, #2
    1c44:	45a2      	cmp	sl, r4
    1c46:	f240 80ca 	bls.w	1dde <__udivdi3+0x2e6>
    1c4a:	ea45 4009 	orr.w	r0, r5, r9, lsl #16
    1c4e:	e001      	b.n	1c54 <__udivdi3+0x15c>
    1c50:	2600      	movs	r6, #0
    1c52:	4630      	mov	r0, r6
    1c54:	4631      	mov	r1, r6
    1c56:	b003      	add	sp, #12
    1c58:	e8bd 8ff0 	ldmia.w	sp!, {r4, r5, r6, r7, r8, r9, sl, fp, pc}
    1c5c:	f1c4 0120 	rsb	r1, r4, #32
    1c60:	fa03 f304 	lsl.w	r3, r3, r4
    1c64:	fa22 f801 	lsr.w	r8, r2, r1
    1c68:	fa25 f701 	lsr.w	r7, r5, r1
    1c6c:	ea48 0803 	orr.w	r8, r8, r3
    1c70:	fa20 f101 	lsr.w	r1, r0, r1
    1c74:	fa05 f504 	lsl.w	r5, r5, r4
    1c78:	4638      	mov	r0, r7
    1c7a:	ea4f 4918 	mov.w	r9, r8, lsr #16
    1c7e:	430d      	orrs	r5, r1
    1c80:	4649      	mov	r1, r9
    1c82:	fa02 f204 	lsl.w	r2, r2, r4
    1c86:	9201      	str	r2, [sp, #4]
    1c88:	f000 f8c2 	bl	1e10 <__aeabi_uidiv>
    1c8c:	4649      	mov	r1, r9
    1c8e:	4682      	mov	sl, r0
    1c90:	4638      	mov	r0, r7
    1c92:	f000 f9eb 	bl	206c <__aeabi_uidivmod>
    1c96:	fa1f f288 	uxth.w	r2, r8
    1c9a:	0c2f      	lsrs	r7, r5, #16
    1c9c:	fb02 f00a 	mul.w	r0, r2, sl
    1ca0:	ea47 4701 	orr.w	r7, r7, r1, lsl #16
    1ca4:	42b8      	cmp	r0, r7
    1ca6:	d906      	bls.n	1cb6 <__udivdi3+0x1be>
    1ca8:	eb17 0708 	adds.w	r7, r7, r8
    1cac:	f10a 31ff 	add.w	r1, sl, #4294967295
    1cb0:	f0c0 809f 	bcc.w	1df2 <__udivdi3+0x2fa>
    1cb4:	468a      	mov	sl, r1
    1cb6:	1a3f      	subs	r7, r7, r0
    1cb8:	4649      	mov	r1, r9
    1cba:	4638      	mov	r0, r7
    1cbc:	9200      	str	r2, [sp, #0]
    1cbe:	f000 f8a7 	bl	1e10 <__aeabi_uidiv>
    1cc2:	4649      	mov	r1, r9
    1cc4:	b2ad      	uxth	r5, r5
    1cc6:	4683      	mov	fp, r0
    1cc8:	4638      	mov	r0, r7
    1cca:	f000 f9cf 	bl	206c <__aeabi_uidivmod>
    1cce:	9a00      	ldr	r2, [sp, #0]
    1cd0:	fb02 f70b 	mul.w	r7, r2, fp
    1cd4:	ea45 4101 	orr.w	r1, r5, r1, lsl #16
    1cd8:	428f      	cmp	r7, r1
    1cda:	d905      	bls.n	1ce8 <__udivdi3+0x1f0>
    1cdc:	eb11 0108 	adds.w	r1, r1, r8
    1ce0:	f10b 32ff 	add.w	r2, fp, #4294967295
    1ce4:	d37d      	bcc.n	1de2 <__udivdi3+0x2ea>
    1ce6:	4693      	mov	fp, r2
    1ce8:	9b01      	ldr	r3, [sp, #4]
    1cea:	ea4b 400a 	orr.w	r0, fp, sl, lsl #16
    1cee:	1bc9      	subs	r1, r1, r7
    1cf0:	ea4f 4c10 	mov.w	ip, r0, lsr #16
    1cf4:	b29d      	uxth	r5, r3
    1cf6:	ea4f 4a13 	mov.w	sl, r3, lsr #16
    1cfa:	b283      	uxth	r3, r0
    1cfc:	fb05 f203 	mul.w	r2, r5, r3
    1d00:	fb05 f50c 	mul.w	r5, r5, ip
    1d04:	fb0a 5303 	mla	r3, sl, r3, r5
    1d08:	fb0a fa0c 	mul.w	sl, sl, ip
    1d0c:	eb03 4312 	add.w	r3, r3, r2, lsr #16
    1d10:	429d      	cmp	r5, r3
    1d12:	bf88      	it	hi
    1d14:	f50a 3a80 	addhi.w	sl, sl, #65536	; 0x10000
    1d18:	eb0a 4a13 	add.w	sl, sl, r3, lsr #16
    1d1c:	4551      	cmp	r1, sl
    1d1e:	d30e      	bcc.n	1d3e <__udivdi3+0x246>
    1d20:	b292      	uxth	r2, r2
    1d22:	bf14      	ite	ne
    1d24:	2100      	movne	r1, #0
    1d26:	2101      	moveq	r1, #1
    1d28:	fa06 f604 	lsl.w	r6, r6, r4
    1d2c:	eb02 4303 	add.w	r3, r2, r3, lsl #16
    1d30:	429e      	cmp	r6, r3
    1d32:	bf2c      	ite	cs
    1d34:	2600      	movcs	r6, #0
    1d36:	f001 0601 	andcc.w	r6, r1, #1
    1d3a:	2e00      	cmp	r6, #0
    1d3c:	d08a      	beq.n	1c54 <__udivdi3+0x15c>
    1d3e:	3801      	subs	r0, #1
    1d40:	2600      	movs	r6, #0
    1d42:	e787      	b.n	1c54 <__udivdi3+0x15c>
    1d44:	409c      	lsls	r4, r3
    1d46:	f1c3 0220 	rsb	r2, r3, #32
    1d4a:	fa25 fa02 	lsr.w	sl, r5, r2
    1d4e:	fa26 f902 	lsr.w	r9, r6, r2
    1d52:	ea4f 4814 	mov.w	r8, r4, lsr #16
    1d56:	4650      	mov	r0, sl
    1d58:	4641      	mov	r1, r8
    1d5a:	fa05 f503 	lsl.w	r5, r5, r3
    1d5e:	fa06 f703 	lsl.w	r7, r6, r3
    1d62:	f000 f855 	bl	1e10 <__aeabi_uidiv>
    1d66:	4641      	mov	r1, r8
    1d68:	ea49 0905 	orr.w	r9, r9, r5
    1d6c:	4683      	mov	fp, r0
    1d6e:	4650      	mov	r0, sl
    1d70:	f000 f97c 	bl	206c <__aeabi_uidivmod>
    1d74:	fa1f fa84 	uxth.w	sl, r4
    1d78:	ea4f 4319 	mov.w	r3, r9, lsr #16
    1d7c:	fb0a f00b 	mul.w	r0, sl, fp
    1d80:	ea43 4101 	orr.w	r1, r3, r1, lsl #16
    1d84:	4288      	cmp	r0, r1
    1d86:	d909      	bls.n	1d9c <__udivdi3+0x2a4>
    1d88:	1909      	adds	r1, r1, r4
    1d8a:	f10b 33ff 	add.w	r3, fp, #4294967295
    1d8e:	d238      	bcs.n	1e02 <__udivdi3+0x30a>
    1d90:	4288      	cmp	r0, r1
    1d92:	bf84      	itt	hi
    1d94:	f1ab 0b02 	subhi.w	fp, fp, #2
    1d98:	1909      	addhi	r1, r1, r4
    1d9a:	d932      	bls.n	1e02 <__udivdi3+0x30a>
    1d9c:	1a0d      	subs	r5, r1, r0
    1d9e:	4641      	mov	r1, r8
    1da0:	4628      	mov	r0, r5
    1da2:	fa1f f989 	uxth.w	r9, r9
    1da6:	f000 f833 	bl	1e10 <__aeabi_uidiv>
    1daa:	4641      	mov	r1, r8
    1dac:	4606      	mov	r6, r0
    1dae:	4628      	mov	r0, r5
    1db0:	f000 f95c 	bl	206c <__aeabi_uidivmod>
    1db4:	fb0a f506 	mul.w	r5, sl, r6
    1db8:	ea49 4101 	orr.w	r1, r9, r1, lsl #16
    1dbc:	428d      	cmp	r5, r1
    1dbe:	d906      	bls.n	1dce <__udivdi3+0x2d6>
    1dc0:	1e73      	subs	r3, r6, #1
    1dc2:	1909      	adds	r1, r1, r4
    1dc4:	d21f      	bcs.n	1e06 <__udivdi3+0x30e>
    1dc6:	428d      	cmp	r5, r1
    1dc8:	d91d      	bls.n	1e06 <__udivdi3+0x30e>
    1dca:	3e02      	subs	r6, #2
    1dcc:	1909      	adds	r1, r1, r4
    1dce:	1b4d      	subs	r5, r1, r5
    1dd0:	ea46 460b 	orr.w	r6, r6, fp, lsl #16
    1dd4:	e703      	b.n	1bde <__udivdi3+0xe6>
    1dd6:	461e      	mov	r6, r3
    1dd8:	e6df      	b.n	1b9a <__udivdi3+0xa2>
    1dda:	4699      	mov	r9, r3
    1ddc:	e71b      	b.n	1c16 <__udivdi3+0x11e>
    1dde:	461d      	mov	r5, r3
    1de0:	e733      	b.n	1c4a <__udivdi3+0x152>
    1de2:	428f      	cmp	r7, r1
    1de4:	bf84      	itt	hi
    1de6:	f1ab 0b02 	subhi.w	fp, fp, #2
    1dea:	4441      	addhi	r1, r8
    1dec:	f63f af7c 	bhi.w	1ce8 <__udivdi3+0x1f0>
    1df0:	e779      	b.n	1ce6 <__udivdi3+0x1ee>
    1df2:	42b8      	cmp	r0, r7
    1df4:	bf84      	itt	hi
    1df6:	f1aa 0a02 	subhi.w	sl, sl, #2
    1dfa:	4447      	addhi	r7, r8
    1dfc:	f63f af5b 	bhi.w	1cb6 <__udivdi3+0x1be>
    1e00:	e758      	b.n	1cb4 <__udivdi3+0x1bc>
    1e02:	469b      	mov	fp, r3
    1e04:	e7ca      	b.n	1d9c <__udivdi3+0x2a4>
    1e06:	461e      	mov	r6, r3
    1e08:	e7e1      	b.n	1dce <__udivdi3+0x2d6>
    1e0a:	bf00      	nop
    1e0c:	0000      	movs	r0, r0
	...

00001e10 <__aeabi_uidiv>:
    1e10:	1e4a      	subs	r2, r1, #1
    1e12:	bf08      	it	eq
    1e14:	4770      	bxeq	lr
    1e16:	f0c0 8124 	bcc.w	2062 <__aeabi_uidiv+0x252>
    1e1a:	4288      	cmp	r0, r1
    1e1c:	f240 8116 	bls.w	204c <__aeabi_uidiv+0x23c>
    1e20:	4211      	tst	r1, r2
    1e22:	f000 8117 	beq.w	2054 <__aeabi_uidiv+0x244>
    1e26:	fab0 f380 	clz	r3, r0
    1e2a:	fab1 f281 	clz	r2, r1
    1e2e:	eba2 0303 	sub.w	r3, r2, r3
    1e32:	f1c3 031f 	rsb	r3, r3, #31
    1e36:	a204      	add	r2, pc, #16	; (adr r2, 1e48 <__aeabi_uidiv+0x38>)
    1e38:	eb02 1303 	add.w	r3, r2, r3, lsl #4
    1e3c:	f04f 0200 	mov.w	r2, #0
    1e40:	469f      	mov	pc, r3
    1e42:	bf00      	nop
    1e44:	f3af 8000 	nop.w
    1e48:	ebb0 7fc1 	cmp.w	r0, r1, lsl #31
    1e4c:	bf00      	nop
    1e4e:	eb42 0202 	adc.w	r2, r2, r2
    1e52:	bf28      	it	cs
    1e54:	eba0 70c1 	subcs.w	r0, r0, r1, lsl #31
    1e58:	ebb0 7f81 	cmp.w	r0, r1, lsl #30
    1e5c:	bf00      	nop
    1e5e:	eb42 0202 	adc.w	r2, r2, r2
    1e62:	bf28      	it	cs
    1e64:	eba0 7081 	subcs.w	r0, r0, r1, lsl #30
    1e68:	ebb0 7f41 	cmp.w	r0, r1, lsl #29
    1e6c:	bf00      	nop
    1e6e:	eb42 0202 	adc.w	r2, r2, r2
    1e72:	bf28      	it	cs
    1e74:	eba0 7041 	subcs.w	r0, r0, r1, lsl #29
    1e78:	ebb0 7f01 	cmp.w	r0, r1, lsl #28
    1e7c:	bf00      	nop
    1e7e:	eb42 0202 	adc.w	r2, r2, r2
    1e82:	bf28      	it	cs
    1e84:	eba0 7001 	subcs.w	r0, r0, r1, lsl #28
    1e88:	ebb0 6fc1 	cmp.w	r0, r1, lsl #27
    1e8c:	bf00      	nop
    1e8e:	eb42 0202 	adc.w	r2, r2, r2
    1e92:	bf28      	it	cs
    1e94:	eba0 60c1 	subcs.w	r0, r0, r1, lsl #27
    1e98:	ebb0 6f81 	cmp.w	r0, r1, lsl #26
    1e9c:	bf00      	nop
    1e9e:	eb42 0202 	adc.w	r2, r2, r2
    1ea2:	bf28      	it	cs
    1ea4:	eba0 6081 	subcs.w	r0, r0, r1, lsl #26
    1ea8:	ebb0 6f41 	cmp.w	r0, r1, lsl #25
    1eac:	bf00      	nop
    1eae:	eb42 0202 	adc.w	r2, r2, r2
    1eb2:	bf28      	it	cs
    1eb4:	eba0 6041 	subcs.w	r0, r0, r1, lsl #25
    1eb8:	ebb0 6f01 	cmp.w	r0, r1, lsl #24
    1ebc:	bf00      	nop
    1ebe:	eb42 0202 	adc.w	r2, r2, r2
    1ec2:	bf28      	it	cs
    1ec4:	eba0 6001 	subcs.w	r0, r0, r1, lsl #24
    1ec8:	ebb0 5fc1 	cmp.w	r0, r1, lsl #23
    1ecc:	bf00      	nop
    1ece:	eb42 0202 	adc.w	r2, r2, r2
    1ed2:	bf28      	it	cs
    1ed4:	eba0 50c1 	subcs.w	r0, r0, r1, lsl #23
    1ed8:	ebb0 5f81 	cmp.w	r0, r1, lsl #22
    1edc:	bf00      	nop
    1ede:	eb42 0202 	adc.w	r2, r2, r2
    1ee2:	bf28      	it	cs
    1ee4:	eba0 5081 	subcs.w	r0, r0, r1, lsl #22
    1ee8:	ebb0 5f41 	cmp.w	r0, r1, lsl #21
    1eec:	bf00      	nop
    1eee:	eb42 0202 	adc.w	r2, r2, r2
    1ef2:	bf28      	it	cs
    1ef4:	eba0 5041 	subcs.w	r0, r0, r1, lsl #21
    1ef8:	ebb0 5f01 	cmp.w	r0, r1, lsl #20
    1efc:	bf00      	nop
    1efe:	eb42 0202 	adc.w	r2, r2, r2
    1f02:	bf28      	it	cs
    1f04:	eba0 5001 	subcs.w	r0, r0, r1, lsl #20
    1f08:	ebb0 4fc1 	cmp.w	r0, r1, lsl #19
    1f0c:	bf00      	nop
    1f0e:	eb42 0202 	adc.w	r2, r2, r2
    1f12:	bf28      	it	cs
    1f14:	eba0 40c1 	subcs.w	r0, r0, r1, lsl #19
    1f18:	ebb0 4f81 	cmp.w	r0, r1, lsl #18
    1f1c:	bf00      	nop
    1f1e:	eb42 0202 	adc.w	r2, r2, r2
    1f22:	bf28      	it	cs
    1f24:	eba0 4081 	subcs.w	r0, r0, r1, lsl #18
    1f28:	ebb0 4f41 	cmp.w	r0, r1, lsl #17
    1f2c:	bf00      	nop
    1f2e:	eb42 0202 	adc.w	r2, r2, r2
    1f32:	bf28      	it	cs
    1f34:	eba0 4041 	subcs.w	r0, r0, r1, lsl #17
    1f38:	ebb0 4f01 	cmp.w	r0, r1, lsl #16
    1f3c:	bf00      	nop
    1f3e:	eb42 0202 	adc.w	r2, r2, r2
    1f42:	bf28      	it	cs
    1f44:	eba0 4001 	subcs.w	r0, r0, r1, lsl #16
    1f48:	ebb0 3fc1 	cmp.w	r0, r1, lsl #15
    1f4c:	bf00      	nop
    1f4e:	eb42 0202 	adc.w	r2, r2, r2
    1f52:	bf28      	it	cs
    1f54:	eba0 30c1 	subcs.w	r0, r0, r1, lsl #15
    1f58:	ebb0 3f81 	cmp.w	r0, r1, lsl #14
    1f5c:	bf00      	nop
    1f5e:	eb42 0202 	adc.w	r2, r2, r2
    1f62:	bf28      	it	cs
    1f64:	eba0 3081 	subcs.w	r0, r0, r1, lsl #14
    1f68:	ebb0 3f41 	cmp.w	r0, r1, lsl #13
    1f6c:	bf00      	nop
    1f6e:	eb42 0202 	adc.w	r2, r2, r2
    1f72:	bf28      	it	cs
    1f74:	eba0 3041 	subcs.w	r0, r0, r1, lsl #13
    1f78:	ebb0 3f01 	cmp.w	r0, r1, lsl #12
    1f7c:	bf00      	nop
    1f7e:	eb42 0202 	adc.w	r2, r2, r2
    1f82:	bf28      	it	cs
    1f84:	eba0 3001 	subcs.w	r0, r0, r1, lsl #12
    1f88:	ebb0 2fc1 	cmp.w	r0, r1, lsl #11
    1f8c:	bf00      	nop
    1f8e:	eb42 0202 	adc.w	r2, r2, r2
    1f92:	bf28      	it	cs
    1f94:	eba0 20c1 	subcs.w	r0, r0, r1, lsl #11
    1f98:	ebb0 2f81 	cmp.w	r0, r1, lsl #10
    1f9c:	bf00      	nop
    1f9e:	eb42 0202 	adc.w	r2, r2, r2
    1fa2:	bf28      	it	cs
    1fa4:	eba0 2081 	subcs.w	r0, r0, r1, lsl #10
    1fa8:	ebb0 2f41 	cmp.w	r0, r1, lsl #9
    1fac:	bf00      	nop
    1fae:	eb42 0202 	adc.w	r2, r2, r2
    1fb2:	bf28      	it	cs
    1fb4:	eba0 2041 	subcs.w	r0, r0, r1, lsl #9
    1fb8:	ebb0 2f01 	cmp.w	r0, r1, lsl #8
    1fbc:	bf00      	nop
    1fbe:	eb42 0202 	adc.w	r2, r2, r2
    1fc2:	bf28      	it	cs
    1fc4:	eba0 2001 	subcs.w	r0, r0, r1, lsl #8
    1fc8:	ebb0 1fc1 	cmp.w	r0, r1, lsl #7
    1fcc:	bf00      	nop
    1fce:	eb42 0202 	adc.w	r2, r2, r2
    1fd2:	bf28      	it	cs
    1fd4:	eba0 10c1 	subcs.w	r0, r0, r1, lsl #7
    1fd8:	ebb0 1f81 	cmp.w	r0, r1, lsl #6
    1fdc:	bf00      	nop
    1fde:	eb42 0202 	adc.w	r2, r2, r2
    1fe2:	bf28      	it	cs
    1fe4:	eba0 1081 	subcs.w	r0, r0, r1, lsl #6
    1fe8:	ebb0 1f41 	cmp.w	r0, r1, lsl #5
    1fec:	bf00      	nop
    1fee:	eb42 0202 	adc.w	r2, r2, r2
    1ff2:	bf28      	it	cs
    1ff4:	eba0 1041 	subcs.w	r0, r0, r1, lsl #5
    1ff8:	ebb0 1f01 	cmp.w	r0, r1, lsl #4
    1ffc:	bf00      	nop
    1ffe:	eb42 0202 	adc.w	r2, r2, r2
    2002:	bf28      	it	cs
    2004:	eba0 1001 	subcs.w	r0, r0, r1, lsl #4
    2008:	ebb0 0fc1 	cmp.w	r0, r1, lsl #3
    200c:	bf00      	nop
    200e:	eb42 0202 	adc.w	r2, r2, r2
    2012:	bf28      	it	cs
    2014:	eba0 00c1 	subcs.w	r0, r0, r1, lsl #3
    2018:	ebb0 0f81 	cmp.w	r0, r1, lsl #2
    201c:	bf00      	nop
    201e:	eb42 0202 	adc.w	r2, r2, r2
    2022:	bf28      	it	cs
    2024:	eba0 0081 	subcs.w	r0, r0, r1, lsl #2
    2028:	ebb0 0f41 	cmp.w	r0, r1, lsl #1
    202c:	bf00      	nop
    202e:	eb42 0202 	adc.w	r2, r2, r2
    2032:	bf28      	it	cs
    2034:	eba0 0041 	subcs.w	r0, r0, r1, lsl #1
    2038:	ebb0 0f01 	cmp.w	r0, r1
    203c:	bf00      	nop
    203e:	eb42 0202 	adc.w	r2, r2, r2
    2042:	bf28      	it	cs
    2044:	eba0 0001 	subcs.w	r0, r0, r1
    2048:	4610      	mov	r0, r2
    204a:	4770      	bx	lr
    204c:	bf0c      	ite	eq
    204e:	2001      	moveq	r0, #1
    2050:	2000      	movne	r0, #0
    2052:	4770      	bx	lr
    2054:	fab1 f281 	clz	r2, r1
    2058:	f1c2 021f 	rsb	r2, r2, #31
    205c:	fa20 f002 	lsr.w	r0, r0, r2
    2060:	4770      	bx	lr
    2062:	b108      	cbz	r0, 2068 <__aeabi_uidiv+0x258>
    2064:	f04f 30ff 	mov.w	r0, #4294967295
    2068:	f7ff bb8e 	b.w	1788 <__aeabi_idiv0>

0000206c <__aeabi_uidivmod>:
    206c:	2900      	cmp	r1, #0
    206e:	d0f8      	beq.n	2062 <__aeabi_uidiv+0x252>
    2070:	e92d 4003 	stmdb	sp!, {r0, r1, lr}
    2074:	f7ff fecc 	bl	1e10 <__aeabi_uidiv>
    2078:	e8bd 4006 	ldmia.w	sp!, {r1, r2, lr}
    207c:	fb02 f300 	mul.w	r3, r2, r0
    2080:	eba1 0103 	sub.w	r1, r1, r3
    2084:	4770      	bx	lr
    2086:	bf00      	nop

00002088 <strlen>:
    2088:	f020 0103 	bic.w	r1, r0, #3
    208c:	f010 0003 	ands.w	r0, r0, #3
    2090:	f1c0 0000 	rsb	r0, r0, #0
    2094:	f851 3b04 	ldr.w	r3, [r1], #4
    2098:	f100 0c04 	add.w	ip, r0, #4
    209c:	ea4f 0ccc 	mov.w	ip, ip, lsl #3
    20a0:	f06f 0200 	mvn.w	r2, #0
    20a4:	bf1c      	itt	ne
    20a6:	fa22 f20c 	lsrne.w	r2, r2, ip
    20aa:	4313      	orrne	r3, r2
    20ac:	f04f 0c01 	mov.w	ip, #1
    20b0:	ea4c 2c0c 	orr.w	ip, ip, ip, lsl #8
    20b4:	ea4c 4c0c 	orr.w	ip, ip, ip, lsl #16
    20b8:	eba3 020c 	sub.w	r2, r3, ip
    20bc:	ea22 0203 	bic.w	r2, r2, r3
    20c0:	ea12 12cc 	ands.w	r2, r2, ip, lsl #7
    20c4:	bf04      	itt	eq
    20c6:	f851 3b04 	ldreq.w	r3, [r1], #4
    20ca:	3004      	addeq	r0, #4
    20cc:	d0f4      	beq.n	20b8 <strlen+0x30>
    20ce:	f013 0fff 	tst.w	r3, #255	; 0xff
    20d2:	bf1f      	itttt	ne
    20d4:	3001      	addne	r0, #1
    20d6:	f413 4f7f 	tstne.w	r3, #65280	; 0xff00
    20da:	3001      	addne	r0, #1
    20dc:	f413 0f7f 	tstne.w	r3, #16711680	; 0xff0000
    20e0:	bf18      	it	ne
    20e2:	3001      	addne	r0, #1
    20e4:	4770      	bx	lr
    20e6:	bf00      	nop

000020e8 <CSWTCH.18>:
    20e8:	4101 0081                                   .A..

000020ec <CSWTCH.29>:
    20ec:	0201 0000 3a43 555c 6573 7372 545c 6d6f     ....C:\Users\Tom
    20fc:	445c 636f 6d75 6e65 7374 475c 7469 7548     \Documents\GitHu
    210c:	5c62 6f43 7472 7865 6946 746c 7265 6c5c     b\CortexFilter\l
    211c:	6370 3731 7878 6c5f 6269 735c 756f 6372     pc17xx_lib\sourc
    212c:	5c65 706c 3163 7837 5f78 6175 7472 632e     e\lpc17xx_uart.c
    213c:	0000 0000                                   ....

00002140 <CSWTCH.3>:
    2140:	1008 0000 3a43 555c 6573 7372 545c 6d6f     ....C:\Users\Tom
    2150:	445c 636f 6d75 6e65 7374 475c 7469 7548     \Documents\GitHu
    2160:	5c62 6f43 7472 7865 6946 746c 7265 6c5c     b\CortexFilter\l
    2170:	6370 3731 7878 6c5f 6269 735c 756f 6372     pc17xx_lib\sourc
    2180:	5c65 706c 3163 7837 5f78 3269 2e73 0063     e\lpc17xx_i2s.c.

00002190 <GPDMA_LUTPerAddr>:
    2190:	8008 4008 8008 4008 0008 4003 0008 4003     ...@...@...@...@
    21a0:	4004 4003 8008 400a 800c 400a c000 4008     .@.@...@...@...@
    21b0:	c000 4000 c000 4000 0000 4001 0000 4001     ...@...@...@...@
    21c0:	8000 4009 8000 4009 c000 4009 c000 4009     ...@...@...@...@
    21d0:	4018 4000 401c 4000 8018 4000 801c 4000     .@.@.@.@...@...@
    21e0:	0018 4009 001c 4009 4018 4009 401c 4009     ...@...@.@.@.@.@

000021f0 <GPDMA_LUTPerBurst>:
    21f0:	0101 0101 0401 0004 0000 0000 0000 0000     ................
	...

00002208 <GPDMA_LUTPerWid>:
    2208:	0000 0000 0202 0002 0000 0000 0000 0000     ................
    2218:	0202 0202 0202 0202 3a43 555c 6573 7372     ........C:\Users
    2228:	545c 6d6f 445c 636f 6d75 6e65 7374 475c     \Tom\Documents\G
    2238:	7469 7548 5c62 6f43 7472 7865 6946 746c     itHub\CortexFilt
    2248:	7265 6c5c 6370 3731 7878 6c5f 6269 735c     er\lpc17xx_lib\s
    2258:	756f 6372 5c65 706c 3163 7837 5f78 7067     ource\lpc17xx_gp
    2268:	6d64 2e61 0063 0000 4d44 0d41 000a 0000     dma.c...DMA.....
    2278:	6f42 746f 6465 0d0a 0000 0000 3249 2053     Booted......I2S 
    2288:	4d44 2041 6552 7571 7365 2074 636f 7563     DMA Request occu
    2298:	7272 6465 0d0a 0000                         rred....

000022a0 <CSWTCH.7>:
    22a0:	c000 2009 c020 2009 c040 2009 c060 2009     ...  .. @.. `.. 
    22b0:	c080 2009                                   ... 

000022b4 <CSWTCH.10>:
    22b4:	c000 2009 c020 2009 c040 2009 c060 2009     ...  .. @.. `.. 
    22c4:	c080 2009                                   ... 

000022c8 <CSWTCH.13>:
    22c8:	c000 2009 c020 2009 c040 2009 c060 2009     ...  .. @.. `.. 
    22d8:	c080 2009                                   ... 

000022dc <digits.6855>:
    22dc:	3130 3332 3534 3736 3938 0000 0a0d 0000     0123456789......
    22ec:	002c 0000                                   ,...
