
Debug/bin/CortexFilter.elf:     file format elf32-littlearm


Disassembly of section .text:

00000000 <g_pfnVectors>:
       0:	5c 04 00 10 71 1b 00 00 f1 1b 00 00 f1 1b 00 00     \...q...........
      10:	f1 1b 00 00 f1 1b 00 00 f1 1b 00 00 00 00 00 00     ................
	...
      2c:	f1 1b 00 00 f1 1b 00 00 00 00 00 00 f1 1b 00 00     ................
      3c:	9d 19 00 00 f1 1b 00 00 f1 1b 00 00 f1 1b 00 00     ................
      4c:	f1 1b 00 00 f1 1b 00 00 f1 1b 00 00 f1 1b 00 00     ................
      5c:	f1 1b 00 00 f1 1b 00 00 f1 1b 00 00 f1 1b 00 00     ................
      6c:	f1 1b 00 00 f1 1b 00 00 f1 1b 00 00 f1 1b 00 00     ................
      7c:	f1 1b 00 00 f1 1b 00 00 f1 1b 00 00 f1 1b 00 00     ................
      8c:	f1 1b 00 00 f1 1b 00 00 f1 1b 00 00 f1 1b 00 00     ................
      9c:	f1 1b 00 00 f1 1b 00 00 f1 1b 00 00 11 1a 00 00     ................
      ac:	f1 1b 00 00 f1 1b 00 00 f1 1b 00 00 f1 1b 00 00     ................
      bc:	f1 1b 00 00 f1 1b 00 00 f1 1b 00 00 f1 1b 00 00     ................

000000cc <CLKPWR_GetPCLK>:
      cc:	f44f 4240 	mov.w	r2, #49152	; 0xc000
      d0:	281f      	cmp	r0, #31
      d2:	f2c4 020f 	movt	r2, #16399	; 0x400f
      d6:	bf92      	itee	ls
      d8:	f8d2 21a8 	ldrls.w	r2, [r2, #424]	; 0x1a8
      dc:	f8d2 21ac 	ldrhi.w	r2, [r2, #428]	; 0x1ac
      e0:	3820      	subhi	r0, #32
      e2:	fa22 f000 	lsr.w	r0, r2, r0
      e6:	4b08      	ldr	r3, [pc, #32]	; (108 <CLKPWR_GetPCLK+0x3c>)
      e8:	f000 0003 	and.w	r0, r0, #3
      ec:	681b      	ldr	r3, [r3, #0]
      ee:	b918      	cbnz	r0, f8 <CLKPWR_GetPCLK+0x2c>
      f0:	2004      	movs	r0, #4
      f2:	fbb3 f0f0 	udiv	r0, r3, r0
      f6:	4770      	bx	lr
      f8:	2802      	cmp	r0, #2
      fa:	d9fa      	bls.n	f2 <CLKPWR_GetPCLK+0x26>
      fc:	2803      	cmp	r0, #3
      fe:	d1f7      	bne.n	f0 <CLKPWR_GetPCLK+0x24>
     100:	2008      	movs	r0, #8
     102:	fbb3 f0f0 	udiv	r0, r3, r0
     106:	4770      	bx	lr
     108:	10000000 	.word	0x10000000

0000010c <CLKPWR_ConfigPPWR>:
     10c:	2901      	cmp	r1, #1
     10e:	d011      	beq.n	134 <CLKPWR_ConfigPPWR+0x28>
     110:	b979      	cbnz	r1, 132 <CLKPWR_ConfigPPWR+0x26>
     112:	f44f 4240 	mov.w	r2, #49152	; 0xc000
     116:	f2c4 020f 	movt	r2, #16399	; 0x400f
     11a:	f8d2 30c4 	ldr.w	r3, [r2, #196]	; 0xc4
     11e:	f24f 7cde 	movw	ip, #63454	; 0xf7de
     122:	f6ce 7cef 	movt	ip, #61423	; 0xefef
     126:	ea03 010c 	and.w	r1, r3, ip
     12a:	ea21 0300 	bic.w	r3, r1, r0
     12e:	f8c2 30c4 	str.w	r3, [r2, #196]	; 0xc4
     132:	4770      	bx	lr
     134:	f44f 4240 	mov.w	r2, #49152	; 0xc000
     138:	f2c4 020f 	movt	r2, #16399	; 0x400f
     13c:	f24f 7cde 	movw	ip, #63454	; 0xf7de
     140:	f8d2 10c4 	ldr.w	r1, [r2, #196]	; 0xc4
     144:	f6ce 7cef 	movt	ip, #61423	; 0xefef
     148:	ea00 000c 	and.w	r0, r0, ip
     14c:	ea40 0301 	orr.w	r3, r0, r1
     150:	f8c2 30c4 	str.w	r3, [r2, #196]	; 0xc4
     154:	4770      	bx	lr
     156:	bf00      	nop

00000158 <SystemCoreClockUpdate>:
     158:	f44f 4340 	mov.w	r3, #49152	; 0xc000
     15c:	f2c4 030f 	movt	r3, #16399	; 0x400f
     160:	f8d3 1088 	ldr.w	r1, [r3, #136]	; 0x88
     164:	f8d3 210c 	ldr.w	r2, [r3, #268]	; 0x10c
     168:	f3c1 6001 	ubfx	r0, r1, #24, #2
     16c:	2803      	cmp	r0, #3
     16e:	f002 0203 	and.w	r2, r2, #3
     172:	d010      	beq.n	196 <SystemCoreClockUpdate+0x3e>
     174:	2a01      	cmp	r2, #1
     176:	d03e      	beq.n	1f6 <SystemCoreClockUpdate+0x9e>
     178:	2a02      	cmp	r2, #2
     17a:	f8d3 2104 	ldr.w	r2, [r3, #260]	; 0x104
     17e:	d028      	beq.n	1d2 <SystemCoreClockUpdate+0x7a>
     180:	b2d1      	uxtb	r1, r2
     182:	f44f 6010 	mov.w	r0, #2304	; 0x900
     186:	1c4a      	adds	r2, r1, #1
     188:	f2c0 003d 	movt	r0, #61	; 0x3d
     18c:	492b      	ldr	r1, [pc, #172]	; (23c <SystemCoreClockUpdate+0xe4>)
     18e:	fbb0 f3f2 	udiv	r3, r0, r2
     192:	600b      	str	r3, [r1, #0]
     194:	4770      	bx	lr
     196:	2a01      	cmp	r2, #1
     198:	d024      	beq.n	1e4 <SystemCoreClockUpdate+0x8c>
     19a:	2a02      	cmp	r2, #2
     19c:	d038      	beq.n	210 <SystemCoreClockUpdate+0xb8>
     19e:	f8d3 1088 	ldr.w	r1, [r3, #136]	; 0x88
     1a2:	f44f 5290 	mov.w	r2, #4608	; 0x1200
     1a6:	0448      	lsls	r0, r1, #17
     1a8:	0c41      	lsrs	r1, r0, #17
     1aa:	f2c0 027a 	movt	r2, #122	; 0x7a
     1ae:	f8d3 0088 	ldr.w	r0, [r3, #136]	; 0x88
     1b2:	fb01 2c02 	mla	ip, r1, r2, r2
     1b6:	f8d3 1104 	ldr.w	r1, [r3, #260]	; 0x104
     1ba:	f3c0 4007 	ubfx	r0, r0, #16, #8
     1be:	1c42      	adds	r2, r0, #1
     1c0:	b2cb      	uxtb	r3, r1
     1c2:	1c59      	adds	r1, r3, #1
     1c4:	fbbc f0f2 	udiv	r0, ip, r2
     1c8:	4b1c      	ldr	r3, [pc, #112]	; (23c <SystemCoreClockUpdate+0xe4>)
     1ca:	fbb0 f2f1 	udiv	r2, r0, r1
     1ce:	601a      	str	r2, [r3, #0]
     1d0:	4770      	bx	lr
     1d2:	b2d3      	uxtb	r3, r2
     1d4:	1c58      	adds	r0, r3, #1
     1d6:	f44f 4c00 	mov.w	ip, #32768	; 0x8000
     1da:	4a18      	ldr	r2, [pc, #96]	; (23c <SystemCoreClockUpdate+0xe4>)
     1dc:	fbbc f1f0 	udiv	r1, ip, r0
     1e0:	6011      	str	r1, [r2, #0]
     1e2:	4770      	bx	lr
     1e4:	f8d3 1088 	ldr.w	r1, [r3, #136]	; 0x88
     1e8:	f44f 5258 	mov.w	r2, #13824	; 0x3600
     1ec:	0448      	lsls	r0, r1, #17
     1ee:	0c41      	lsrs	r1, r0, #17
     1f0:	f2c0 126e 	movt	r2, #366	; 0x16e
     1f4:	e7db      	b.n	1ae <SystemCoreClockUpdate+0x56>
     1f6:	f8d3 3104 	ldr.w	r3, [r3, #260]	; 0x104
     1fa:	f44f 51d8 	mov.w	r1, #6912	; 0x1b00
     1fe:	b2d8      	uxtb	r0, r3
     200:	1c42      	adds	r2, r0, #1
     202:	f2c0 01b7 	movt	r1, #183	; 0xb7
     206:	480d      	ldr	r0, [pc, #52]	; (23c <SystemCoreClockUpdate+0xe4>)
     208:	fbb1 f3f2 	udiv	r3, r1, r2
     20c:	6003      	str	r3, [r0, #0]
     20e:	4770      	bx	lr
     210:	f8d3 0088 	ldr.w	r0, [r3, #136]	; 0x88
     214:	f8d3 1088 	ldr.w	r1, [r3, #136]	; 0x88
     218:	0442      	lsls	r2, r0, #17
     21a:	f8d3 0104 	ldr.w	r0, [r3, #260]	; 0x104
     21e:	0c53      	lsrs	r3, r2, #17
     220:	1c5a      	adds	r2, r3, #1
     222:	f3c1 4307 	ubfx	r3, r1, #16, #8
     226:	0412      	lsls	r2, r2, #16
     228:	1c59      	adds	r1, r3, #1
     22a:	b2c3      	uxtb	r3, r0
     22c:	1c58      	adds	r0, r3, #1
     22e:	fbb2 f1f1 	udiv	r1, r2, r1
     232:	4b02      	ldr	r3, [pc, #8]	; (23c <SystemCoreClockUpdate+0xe4>)
     234:	fbb1 f2f0 	udiv	r2, r1, r0
     238:	601a      	str	r2, [r3, #0]
     23a:	4770      	bx	lr
     23c:	10000000 	.word	0x10000000

00000240 <SystemInit>:
     240:	b470      	push	{r4, r5, r6}
     242:	f44f 4240 	mov.w	r2, #49152	; 0xc000
     246:	f2c4 020f 	movt	r2, #16399	; 0x400f
     24a:	2020      	movs	r0, #32
     24c:	f8c2 01a0 	str.w	r0, [r2, #416]	; 0x1a0
     250:	f8d2 31a0 	ldr.w	r3, [r2, #416]	; 0x1a0
     254:	069d      	lsls	r5, r3, #26
     256:	d47b      	bmi.n	350 <SystemInit+0x110>
     258:	f44f 4c40 	mov.w	ip, #49152	; 0xc000
     25c:	2563      	movs	r5, #99	; 0x63
     25e:	f2c4 0c0f 	movt	ip, #16399	; 0x400f
     262:	2600      	movs	r6, #0
     264:	2401      	movs	r4, #1
     266:	23aa      	movs	r3, #170	; 0xaa
     268:	2255      	movs	r2, #85	; 0x55
     26a:	f2c0 0505 	movt	r5, #5
     26e:	2003      	movs	r0, #3
     270:	f8cc 0104 	str.w	r0, [ip, #260]	; 0x104
     274:	4661      	mov	r1, ip
     276:	f8cc 61a8 	str.w	r6, [ip, #424]	; 0x1a8
     27a:	f8cc 61ac 	str.w	r6, [ip, #428]	; 0x1ac
     27e:	f8cc 410c 	str.w	r4, [ip, #268]	; 0x10c
     282:	f8cc 5084 	str.w	r5, [ip, #132]	; 0x84
     286:	f8cc 308c 	str.w	r3, [ip, #140]	; 0x8c
     28a:	f8cc 208c 	str.w	r2, [ip, #140]	; 0x8c
     28e:	f8cc 4080 	str.w	r4, [ip, #128]	; 0x80
     292:	f8cc 308c 	str.w	r3, [ip, #140]	; 0x8c
     296:	f8cc 208c 	str.w	r2, [ip, #140]	; 0x8c
     29a:	f8d1 2088 	ldr.w	r2, [r1, #136]	; 0x88
     29e:	f44f 4340 	mov.w	r3, #49152	; 0xc000
     2a2:	0150      	lsls	r0, r2, #5
     2a4:	f2c4 030f 	movt	r3, #16399	; 0x400f
     2a8:	d5f7      	bpl.n	29a <SystemInit+0x5a>
     2aa:	2103      	movs	r1, #3
     2ac:	20aa      	movs	r0, #170	; 0xaa
     2ae:	2455      	movs	r4, #85	; 0x55
     2b0:	f8c3 1080 	str.w	r1, [r3, #128]	; 0x80
     2b4:	f8c3 008c 	str.w	r0, [r3, #140]	; 0x8c
     2b8:	4619      	mov	r1, r3
     2ba:	f8c3 408c 	str.w	r4, [r3, #140]	; 0x8c
     2be:	f8d1 2088 	ldr.w	r2, [r1, #136]	; 0x88
     2c2:	f44f 4340 	mov.w	r3, #49152	; 0xc000
     2c6:	f012 7f40 	tst.w	r2, #50331648	; 0x3000000
     2ca:	f2c4 030f 	movt	r3, #16399	; 0x400f
     2ce:	d0f6      	beq.n	2be <SystemInit+0x7e>
     2d0:	2423      	movs	r4, #35	; 0x23
     2d2:	f8c3 40a4 	str.w	r4, [r3, #164]	; 0xa4
     2d6:	20aa      	movs	r0, #170	; 0xaa
     2d8:	2255      	movs	r2, #85	; 0x55
     2da:	2401      	movs	r4, #1
     2dc:	f8c3 00ac 	str.w	r0, [r3, #172]	; 0xac
     2e0:	4619      	mov	r1, r3
     2e2:	f8c3 20ac 	str.w	r2, [r3, #172]	; 0xac
     2e6:	f8c3 40a0 	str.w	r4, [r3, #160]	; 0xa0
     2ea:	f8c3 00ac 	str.w	r0, [r3, #172]	; 0xac
     2ee:	f8c3 20ac 	str.w	r2, [r3, #172]	; 0xac
     2f2:	f8d1 20a8 	ldr.w	r2, [r1, #168]	; 0xa8
     2f6:	f44f 4340 	mov.w	r3, #49152	; 0xc000
     2fa:	0552      	lsls	r2, r2, #21
     2fc:	f2c4 030f 	movt	r3, #16399	; 0x400f
     300:	d5f7      	bpl.n	2f2 <SystemInit+0xb2>
     302:	2103      	movs	r1, #3
     304:	22aa      	movs	r2, #170	; 0xaa
     306:	2055      	movs	r0, #85	; 0x55
     308:	f8c3 10a0 	str.w	r1, [r3, #160]	; 0xa0
     30c:	f8c3 20ac 	str.w	r2, [r3, #172]	; 0xac
     310:	4619      	mov	r1, r3
     312:	f8c3 00ac 	str.w	r0, [r3, #172]	; 0xac
     316:	f8d1 00a8 	ldr.w	r0, [r1, #168]	; 0xa8
     31a:	f44f 4340 	mov.w	r3, #49152	; 0xc000
     31e:	f410 7f40 	tst.w	r0, #768	; 0x300
     322:	f2c4 030f 	movt	r3, #16399	; 0x400f
     326:	d0f6      	beq.n	316 <SystemInit+0xd6>
     328:	f248 70de 	movw	r0, #34782	; 0x87de
     32c:	f44f 4c6d 	mov.w	ip, #60672	; 0xed00
     330:	2100      	movs	r1, #0
     332:	f2c0 4028 	movt	r0, #1064	; 0x428
     336:	f2ce 0c00 	movt	ip, #57344	; 0xe000
     33a:	f243 023a 	movw	r2, #12346	; 0x303a
     33e:	f8c3 00c4 	str.w	r0, [r3, #196]	; 0xc4
     342:	f8c3 11c8 	str.w	r1, [r3, #456]	; 0x1c8
     346:	601a      	str	r2, [r3, #0]
     348:	f8cc 1008 	str.w	r1, [ip, #8]
     34c:	bc70      	pop	{r4, r5, r6}
     34e:	4770      	bx	lr
     350:	f8d2 11a0 	ldr.w	r1, [r2, #416]	; 0x1a0
     354:	064c      	lsls	r4, r1, #25
     356:	f53f af7f 	bmi.w	258 <SystemInit+0x18>
     35a:	f8d2 11a0 	ldr.w	r1, [r2, #416]	; 0x1a0
     35e:	064c      	lsls	r4, r1, #25
     360:	d5f6      	bpl.n	350 <SystemInit+0x110>
     362:	e779      	b.n	258 <SystemInit+0x18>

00000364 <UART_Init>:
     364:	e92d 4ff0 	stmdb	sp!, {r4, r5, r6, r7, r8, r9, sl, fp, lr}
     368:	f44f 4340 	mov.w	r3, #49152	; 0xc000
     36c:	f2c4 0300 	movt	r3, #16384	; 0x4000
     370:	b085      	sub	sp, #20
     372:	4298      	cmp	r0, r3
     374:	4604      	mov	r4, r0
     376:	9102      	str	r1, [sp, #8]
     378:	d014      	beq.n	3a4 <UART_Init+0x40>
     37a:	2000      	movs	r0, #0
     37c:	f2c4 0001 	movt	r0, #16385	; 0x4001
     380:	4284      	cmp	r4, r0
     382:	d00f      	beq.n	3a4 <UART_Init+0x40>
     384:	f44f 4100 	mov.w	r1, #32768	; 0x8000
     388:	f2c4 0109 	movt	r1, #16393	; 0x4009
     38c:	428c      	cmp	r4, r1
     38e:	d009      	beq.n	3a4 <UART_Init+0x40>
     390:	f44f 4240 	mov.w	r2, #49152	; 0xc000
     394:	f2c4 0209 	movt	r2, #16393	; 0x4009
     398:	4294      	cmp	r4, r2
     39a:	d003      	beq.n	3a4 <UART_Init+0x40>
     39c:	4846      	ldr	r0, [pc, #280]	; (4b8 <UART_Init+0x154>)
     39e:	21bf      	movs	r1, #191	; 0xbf
     3a0:	f001 fcd4 	bl	1d4c <check_failed>
     3a4:	9f02      	ldr	r7, [sp, #8]
     3a6:	797d      	ldrb	r5, [r7, #5]
     3a8:	2d03      	cmp	r5, #3
     3aa:	f200 8347 	bhi.w	a3c <UART_Init+0x6d8>
     3ae:	f8dd c008 	ldr.w	ip, [sp, #8]
     3b2:	f89c 8006 	ldrb.w	r8, [ip, #6]
     3b6:	f1b8 0f01 	cmp.w	r8, #1
     3ba:	d903      	bls.n	3c4 <UART_Init+0x60>
     3bc:	483e      	ldr	r0, [pc, #248]	; (4b8 <UART_Init+0x154>)
     3be:	21c1      	movs	r1, #193	; 0xc1
     3c0:	f001 fcc4 	bl	1d4c <check_failed>
     3c4:	9b02      	ldr	r3, [sp, #8]
     3c6:	f893 9004 	ldrb.w	r9, [r3, #4]
     3ca:	f1b9 0f04 	cmp.w	r9, #4
     3ce:	f200 8330 	bhi.w	a32 <UART_Init+0x6ce>
     3d2:	f44f 4040 	mov.w	r0, #49152	; 0xc000
     3d6:	f2c4 0000 	movt	r0, #16384	; 0x4000
     3da:	4284      	cmp	r4, r0
     3dc:	f000 83ed 	beq.w	bba <UART_Init+0x856>
     3e0:	2100      	movs	r1, #0
     3e2:	f2c4 0101 	movt	r1, #16385	; 0x4001
     3e6:	428c      	cmp	r4, r1
     3e8:	f000 83ec 	beq.w	bc4 <UART_Init+0x860>
     3ec:	f44f 4200 	mov.w	r2, #32768	; 0x8000
     3f0:	f2c4 0209 	movt	r2, #16393	; 0x4009
     3f4:	4294      	cmp	r4, r2
     3f6:	f000 83d4 	beq.w	ba2 <UART_Init+0x83e>
     3fa:	f44f 4540 	mov.w	r5, #49152	; 0xc000
     3fe:	f2c4 0509 	movt	r5, #16393	; 0x4009
     402:	42ac      	cmp	r4, r5
     404:	f000 83d3 	beq.w	bae <UART_Init+0x84a>
     408:	2700      	movs	r7, #0
     40a:	f2c4 0701 	movt	r7, #16385	; 0x4001
     40e:	42bc      	cmp	r4, r7
     410:	f000 8328 	beq.w	a64 <UART_Init+0x700>
     414:	2007      	movs	r0, #7
     416:	2300      	movs	r3, #0
     418:	7220      	strb	r0, [r4, #8]
     41a:	7223      	strb	r3, [r4, #8]
     41c:	f894 8014 	ldrb.w	r8, [r4, #20]
     420:	ea5f 71c8 	movs.w	r1, r8, lsl #31
     424:	d503      	bpl.n	42e <UART_Init+0xca>
     426:	7823      	ldrb	r3, [r4, #0]
     428:	7d21      	ldrb	r1, [r4, #20]
     42a:	07ca      	lsls	r2, r1, #31
     42c:	d4fb      	bmi.n	426 <UART_Init+0xc2>
     42e:	2280      	movs	r2, #128	; 0x80
     430:	f884 2030 	strb.w	r2, [r4, #48]	; 0x30
     434:	7d25      	ldrb	r5, [r4, #20]
     436:	06ab      	lsls	r3, r5, #26
     438:	d5fc      	bpl.n	434 <UART_Init+0xd0>
     43a:	2700      	movs	r7, #0
     43c:	f884 7030 	strb.w	r7, [r4, #48]	; 0x30
     440:	6067      	str	r7, [r4, #4]
     442:	7327      	strb	r7, [r4, #12]
     444:	6227      	str	r7, [r4, #32]
     446:	7d23      	ldrb	r3, [r4, #20]
     448:	f44f 4c40 	mov.w	ip, #49152	; 0xc000
     44c:	f2c4 0c09 	movt	ip, #16393	; 0x4009
     450:	4564      	cmp	r4, ip
     452:	f000 8301 	beq.w	a58 <UART_Init+0x6f4>
     456:	f44f 4140 	mov.w	r1, #49152	; 0xc000
     45a:	f2c4 0100 	movt	r1, #16384	; 0x4000
     45e:	f8dd 9008 	ldr.w	r9, [sp, #8]
     462:	428c      	cmp	r4, r1
     464:	f8d9 5000 	ldr.w	r5, [r9]
     468:	f000 83b1 	beq.w	bce <UART_Init+0x86a>
     46c:	2200      	movs	r2, #0
     46e:	f2c4 0201 	movt	r2, #16385	; 0x4001
     472:	4294      	cmp	r4, r2
     474:	f000 83b0 	beq.w	bd8 <UART_Init+0x874>
     478:	f44f 4700 	mov.w	r7, #32768	; 0x8000
     47c:	f2c4 0709 	movt	r7, #16393	; 0x4009
     480:	42bc      	cmp	r4, r7
     482:	f000 83ae 	beq.w	be2 <UART_Init+0x87e>
     486:	f44f 4b40 	mov.w	fp, #49152	; 0xc000
     48a:	f2c4 0b09 	movt	fp, #16393	; 0x4009
     48e:	455c      	cmp	r4, fp
     490:	f000 83ac 	beq.w	bec <UART_Init+0x888>
     494:	0936      	lsrs	r6, r6, #4
     496:	2201      	movs	r2, #1
     498:	2300      	movs	r3, #0
     49a:	9601      	str	r6, [sp, #4]
     49c:	f248 67a0 	movw	r7, #34464	; 0x86a0
     4a0:	fa25 f002 	lsr.w	r0, r5, r2
     4a4:	9901      	ldr	r1, [sp, #4]
     4a6:	f362 471f 	bfi	r7, r2, #16, #16
     4aa:	4698      	mov	r8, r3
     4ac:	9300      	str	r3, [sp, #0]
     4ae:	4693      	mov	fp, r2
     4b0:	f64f 76fc 	movw	r6, #65532	; 0xfffc
     4b4:	9403      	str	r4, [sp, #12]
     4b6:	e01b      	b.n	4f0 <UART_Init+0x18c>
     4b8:	0000364c 	.word	0x0000364c
     4bc:	fbb9 f9fc 	udiv	r9, r9, ip
     4c0:	45a9      	cmp	r9, r5
     4c2:	bf94      	ite	ls
     4c4:	ebc9 0305 	rsbls	r3, r9, r5
     4c8:	ebc5 0309 	rsbhi	r3, r5, r9
     4cc:	42bb      	cmp	r3, r7
     4ce:	f080 8220 	bcs.w	912 <UART_Init+0x5ae>
     4d2:	2b00      	cmp	r3, #0
     4d4:	f000 8324 	beq.w	b20 <UART_Init+0x7bc>
     4d8:	4693      	mov	fp, r2
     4da:	220f      	movs	r2, #15
     4dc:	461f      	mov	r7, r3
     4de:	46e0      	mov	r8, ip
     4e0:	9200      	str	r2, [sp, #0]
     4e2:	f8dd c004 	ldr.w	ip, [sp, #4]
     4e6:	2c10      	cmp	r4, #16
     4e8:	4461      	add	r1, ip
     4ea:	f000 8215 	beq.w	918 <UART_Init+0x5b4>
     4ee:	4622      	mov	r2, r4
     4f0:	fbb1 f4f2 	udiv	r4, r1, r2
     4f4:	fbb4 fcf5 	udiv	ip, r4, r5
     4f8:	fb05 491c 	mls	r9, r5, ip, r4
     4fc:	4548      	cmp	r0, r9
     4fe:	bf38      	it	cc
     500:	f10c 0c01 	addcc.w	ip, ip, #1
     504:	f1ac 0903 	sub.w	r9, ip, #3
     508:	45b1      	cmp	r9, r6
     50a:	d80f      	bhi.n	52c <UART_Init+0x1c8>
     50c:	fbb4 f3fc 	udiv	r3, r4, ip
     510:	429d      	cmp	r5, r3
     512:	f0c0 8253 	bcc.w	9bc <UART_Init+0x658>
     516:	1aeb      	subs	r3, r5, r3
     518:	429f      	cmp	r7, r3
     51a:	d907      	bls.n	52c <UART_Init+0x1c8>
     51c:	2b00      	cmp	r3, #0
     51e:	f000 82d4 	beq.w	aca <UART_Init+0x766>
     522:	2400      	movs	r4, #0
     524:	461f      	mov	r7, r3
     526:	46e0      	mov	r8, ip
     528:	4693      	mov	fp, r2
     52a:	9400      	str	r4, [sp, #0]
     52c:	1c54      	adds	r4, r2, #1
     52e:	fbb1 f9f4 	udiv	r9, r1, r4
     532:	fbb9 fcf5 	udiv	ip, r9, r5
     536:	fb05 9a1c 	mls	sl, r5, ip, r9
     53a:	4550      	cmp	r0, sl
     53c:	bf38      	it	cc
     53e:	f10c 0c01 	addcc.w	ip, ip, #1
     542:	f1ac 0a03 	sub.w	sl, ip, #3
     546:	45b2      	cmp	sl, r6
     548:	d811      	bhi.n	56e <UART_Init+0x20a>
     54a:	fbb9 f3fc 	udiv	r3, r9, ip
     54e:	429d      	cmp	r5, r3
     550:	f0c0 8236 	bcc.w	9c0 <UART_Init+0x65c>
     554:	1aeb      	subs	r3, r5, r3
     556:	429f      	cmp	r7, r3
     558:	d909      	bls.n	56e <UART_Init+0x20a>
     55a:	2b00      	cmp	r3, #0
     55c:	f000 82ba 	beq.w	ad4 <UART_Init+0x770>
     560:	46e0      	mov	r8, ip
     562:	f04f 0c01 	mov.w	ip, #1
     566:	461f      	mov	r7, r3
     568:	4693      	mov	fp, r2
     56a:	f8cd c000 	str.w	ip, [sp]
     56e:	f102 0902 	add.w	r9, r2, #2
     572:	fbb1 f9f9 	udiv	r9, r1, r9
     576:	fbb9 fcf5 	udiv	ip, r9, r5
     57a:	fb05 9a1c 	mls	sl, r5, ip, r9
     57e:	4550      	cmp	r0, sl
     580:	bf38      	it	cc
     582:	f10c 0c01 	addcc.w	ip, ip, #1
     586:	f1ac 0a03 	sub.w	sl, ip, #3
     58a:	45b2      	cmp	sl, r6
     58c:	d811      	bhi.n	5b2 <UART_Init+0x24e>
     58e:	fbb9 f3fc 	udiv	r3, r9, ip
     592:	429d      	cmp	r5, r3
     594:	f0c0 8216 	bcc.w	9c4 <UART_Init+0x660>
     598:	1aeb      	subs	r3, r5, r3
     59a:	429f      	cmp	r7, r3
     59c:	d909      	bls.n	5b2 <UART_Init+0x24e>
     59e:	2b00      	cmp	r3, #0
     5a0:	f000 829e 	beq.w	ae0 <UART_Init+0x77c>
     5a4:	46e0      	mov	r8, ip
     5a6:	f04f 0c02 	mov.w	ip, #2
     5aa:	461f      	mov	r7, r3
     5ac:	4693      	mov	fp, r2
     5ae:	f8cd c000 	str.w	ip, [sp]
     5b2:	f102 0903 	add.w	r9, r2, #3
     5b6:	fbb1 f9f9 	udiv	r9, r1, r9
     5ba:	fbb9 fcf5 	udiv	ip, r9, r5
     5be:	fb05 9a1c 	mls	sl, r5, ip, r9
     5c2:	4550      	cmp	r0, sl
     5c4:	bf38      	it	cc
     5c6:	f10c 0c01 	addcc.w	ip, ip, #1
     5ca:	f1ac 0a03 	sub.w	sl, ip, #3
     5ce:	45b2      	cmp	sl, r6
     5d0:	d811      	bhi.n	5f6 <UART_Init+0x292>
     5d2:	fbb9 f3fc 	udiv	r3, r9, ip
     5d6:	429d      	cmp	r5, r3
     5d8:	f0c0 81f6 	bcc.w	9c8 <UART_Init+0x664>
     5dc:	1aeb      	subs	r3, r5, r3
     5de:	429f      	cmp	r7, r3
     5e0:	d909      	bls.n	5f6 <UART_Init+0x292>
     5e2:	2b00      	cmp	r3, #0
     5e4:	f000 8282 	beq.w	aec <UART_Init+0x788>
     5e8:	46e0      	mov	r8, ip
     5ea:	f04f 0c03 	mov.w	ip, #3
     5ee:	461f      	mov	r7, r3
     5f0:	4693      	mov	fp, r2
     5f2:	f8cd c000 	str.w	ip, [sp]
     5f6:	f102 0904 	add.w	r9, r2, #4
     5fa:	fbb1 f9f9 	udiv	r9, r1, r9
     5fe:	fbb9 fcf5 	udiv	ip, r9, r5
     602:	fb05 9a1c 	mls	sl, r5, ip, r9
     606:	4550      	cmp	r0, sl
     608:	bf38      	it	cc
     60a:	f10c 0c01 	addcc.w	ip, ip, #1
     60e:	f1ac 0a03 	sub.w	sl, ip, #3
     612:	45b2      	cmp	sl, r6
     614:	d811      	bhi.n	63a <UART_Init+0x2d6>
     616:	fbb9 f3fc 	udiv	r3, r9, ip
     61a:	429d      	cmp	r5, r3
     61c:	f0c0 81d6 	bcc.w	9cc <UART_Init+0x668>
     620:	1aeb      	subs	r3, r5, r3
     622:	429f      	cmp	r7, r3
     624:	d909      	bls.n	63a <UART_Init+0x2d6>
     626:	2b00      	cmp	r3, #0
     628:	f000 8249 	beq.w	abe <UART_Init+0x75a>
     62c:	46e0      	mov	r8, ip
     62e:	f04f 0c04 	mov.w	ip, #4
     632:	461f      	mov	r7, r3
     634:	4693      	mov	fp, r2
     636:	f8cd c000 	str.w	ip, [sp]
     63a:	f102 0905 	add.w	r9, r2, #5
     63e:	fbb1 f9f9 	udiv	r9, r1, r9
     642:	fbb9 fcf5 	udiv	ip, r9, r5
     646:	fb05 9a1c 	mls	sl, r5, ip, r9
     64a:	4550      	cmp	r0, sl
     64c:	bf38      	it	cc
     64e:	f10c 0c01 	addcc.w	ip, ip, #1
     652:	f1ac 0a03 	sub.w	sl, ip, #3
     656:	45b2      	cmp	sl, r6
     658:	d811      	bhi.n	67e <UART_Init+0x31a>
     65a:	fbb9 f3fc 	udiv	r3, r9, ip
     65e:	429d      	cmp	r5, r3
     660:	f0c0 81b6 	bcc.w	9d0 <UART_Init+0x66c>
     664:	1aeb      	subs	r3, r5, r3
     666:	429f      	cmp	r7, r3
     668:	d909      	bls.n	67e <UART_Init+0x31a>
     66a:	2b00      	cmp	r3, #0
     66c:	f000 8286 	beq.w	b7c <UART_Init+0x818>
     670:	46e0      	mov	r8, ip
     672:	f04f 0c05 	mov.w	ip, #5
     676:	461f      	mov	r7, r3
     678:	4693      	mov	fp, r2
     67a:	f8cd c000 	str.w	ip, [sp]
     67e:	f102 0906 	add.w	r9, r2, #6
     682:	fbb1 f9f9 	udiv	r9, r1, r9
     686:	fbb9 fcf5 	udiv	ip, r9, r5
     68a:	fb05 9a1c 	mls	sl, r5, ip, r9
     68e:	4550      	cmp	r0, sl
     690:	bf38      	it	cc
     692:	f10c 0c01 	addcc.w	ip, ip, #1
     696:	f1ac 0a03 	sub.w	sl, ip, #3
     69a:	45b2      	cmp	sl, r6
     69c:	d811      	bhi.n	6c2 <UART_Init+0x35e>
     69e:	fbb9 f3fc 	udiv	r3, r9, ip
     6a2:	429d      	cmp	r5, r3
     6a4:	f0c0 8196 	bcc.w	9d4 <UART_Init+0x670>
     6a8:	1aeb      	subs	r3, r5, r3
     6aa:	429f      	cmp	r7, r3
     6ac:	d909      	bls.n	6c2 <UART_Init+0x35e>
     6ae:	2b00      	cmp	r3, #0
     6b0:	f000 8256 	beq.w	b60 <UART_Init+0x7fc>
     6b4:	46e0      	mov	r8, ip
     6b6:	f04f 0c06 	mov.w	ip, #6
     6ba:	461f      	mov	r7, r3
     6bc:	4693      	mov	fp, r2
     6be:	f8cd c000 	str.w	ip, [sp]
     6c2:	f102 0907 	add.w	r9, r2, #7
     6c6:	fbb1 f9f9 	udiv	r9, r1, r9
     6ca:	fbb9 fcf5 	udiv	ip, r9, r5
     6ce:	fb05 9a1c 	mls	sl, r5, ip, r9
     6d2:	4550      	cmp	r0, sl
     6d4:	bf38      	it	cc
     6d6:	f10c 0c01 	addcc.w	ip, ip, #1
     6da:	f1ac 0a03 	sub.w	sl, ip, #3
     6de:	45b2      	cmp	sl, r6
     6e0:	d811      	bhi.n	706 <UART_Init+0x3a2>
     6e2:	fbb9 f3fc 	udiv	r3, r9, ip
     6e6:	429d      	cmp	r5, r3
     6e8:	f0c0 8176 	bcc.w	9d8 <UART_Init+0x674>
     6ec:	1aeb      	subs	r3, r5, r3
     6ee:	429f      	cmp	r7, r3
     6f0:	d909      	bls.n	706 <UART_Init+0x3a2>
     6f2:	2b00      	cmp	r3, #0
     6f4:	f000 823a 	beq.w	b6c <UART_Init+0x808>
     6f8:	46e0      	mov	r8, ip
     6fa:	f04f 0c07 	mov.w	ip, #7
     6fe:	461f      	mov	r7, r3
     700:	4693      	mov	fp, r2
     702:	f8cd c000 	str.w	ip, [sp]
     706:	f102 0908 	add.w	r9, r2, #8
     70a:	fbb1 f9f9 	udiv	r9, r1, r9
     70e:	fbb9 fcf5 	udiv	ip, r9, r5
     712:	fb05 9a1c 	mls	sl, r5, ip, r9
     716:	4550      	cmp	r0, sl
     718:	bf38      	it	cc
     71a:	f10c 0c01 	addcc.w	ip, ip, #1
     71e:	f1ac 0a03 	sub.w	sl, ip, #3
     722:	45b2      	cmp	sl, r6
     724:	d812      	bhi.n	74c <UART_Init+0x3e8>
     726:	fbb9 f9fc 	udiv	r9, r9, ip
     72a:	454d      	cmp	r5, r9
     72c:	f0c0 8156 	bcc.w	9dc <UART_Init+0x678>
     730:	ebc9 0305 	rsb	r3, r9, r5
     734:	429f      	cmp	r7, r3
     736:	d909      	bls.n	74c <UART_Init+0x3e8>
     738:	2b00      	cmp	r3, #0
     73a:	f000 81f7 	beq.w	b2c <UART_Init+0x7c8>
     73e:	46e0      	mov	r8, ip
     740:	f04f 0c08 	mov.w	ip, #8
     744:	461f      	mov	r7, r3
     746:	4693      	mov	fp, r2
     748:	f8cd c000 	str.w	ip, [sp]
     74c:	f102 0909 	add.w	r9, r2, #9
     750:	fbb1 f9f9 	udiv	r9, r1, r9
     754:	fbb9 fcf5 	udiv	ip, r9, r5
     758:	fb05 9a1c 	mls	sl, r5, ip, r9
     75c:	4550      	cmp	r0, sl
     75e:	bf38      	it	cc
     760:	f10c 0c01 	addcc.w	ip, ip, #1
     764:	f1ac 0a03 	sub.w	sl, ip, #3
     768:	45b2      	cmp	sl, r6
     76a:	d812      	bhi.n	792 <UART_Init+0x42e>
     76c:	fbb9 f9fc 	udiv	r9, r9, ip
     770:	454d      	cmp	r5, r9
     772:	f0c0 8136 	bcc.w	9e2 <UART_Init+0x67e>
     776:	ebc9 0305 	rsb	r3, r9, r5
     77a:	429f      	cmp	r7, r3
     77c:	d909      	bls.n	792 <UART_Init+0x42e>
     77e:	2b00      	cmp	r3, #0
     780:	f000 81da 	beq.w	b38 <UART_Init+0x7d4>
     784:	46e0      	mov	r8, ip
     786:	f04f 0c09 	mov.w	ip, #9
     78a:	461f      	mov	r7, r3
     78c:	4693      	mov	fp, r2
     78e:	f8cd c000 	str.w	ip, [sp]
     792:	f102 090a 	add.w	r9, r2, #10
     796:	fbb1 f9f9 	udiv	r9, r1, r9
     79a:	fbb9 fcf5 	udiv	ip, r9, r5
     79e:	fb05 9a1c 	mls	sl, r5, ip, r9
     7a2:	4550      	cmp	r0, sl
     7a4:	bf38      	it	cc
     7a6:	f10c 0c01 	addcc.w	ip, ip, #1
     7aa:	f1ac 0a03 	sub.w	sl, ip, #3
     7ae:	45b2      	cmp	sl, r6
     7b0:	d812      	bhi.n	7d8 <UART_Init+0x474>
     7b2:	fbb9 f9fc 	udiv	r9, r9, ip
     7b6:	454d      	cmp	r5, r9
     7b8:	f0c0 8116 	bcc.w	9e8 <UART_Init+0x684>
     7bc:	ebc9 0305 	rsb	r3, r9, r5
     7c0:	429f      	cmp	r7, r3
     7c2:	d909      	bls.n	7d8 <UART_Init+0x474>
     7c4:	2b00      	cmp	r3, #0
     7c6:	f000 81bd 	beq.w	b44 <UART_Init+0x7e0>
     7ca:	46e0      	mov	r8, ip
     7cc:	f04f 0c0a 	mov.w	ip, #10
     7d0:	461f      	mov	r7, r3
     7d2:	4693      	mov	fp, r2
     7d4:	f8cd c000 	str.w	ip, [sp]
     7d8:	f102 090b 	add.w	r9, r2, #11
     7dc:	fbb1 f9f9 	udiv	r9, r1, r9
     7e0:	fbb9 fcf5 	udiv	ip, r9, r5
     7e4:	fb05 9a1c 	mls	sl, r5, ip, r9
     7e8:	4550      	cmp	r0, sl
     7ea:	bf38      	it	cc
     7ec:	f10c 0c01 	addcc.w	ip, ip, #1
     7f0:	f1ac 0a03 	sub.w	sl, ip, #3
     7f4:	45b2      	cmp	sl, r6
     7f6:	d812      	bhi.n	81e <UART_Init+0x4ba>
     7f8:	fbb9 f9fc 	udiv	r9, r9, ip
     7fc:	454d      	cmp	r5, r9
     7fe:	f0c0 80f6 	bcc.w	9ee <UART_Init+0x68a>
     802:	ebc9 0305 	rsb	r3, r9, r5
     806:	429f      	cmp	r7, r3
     808:	d909      	bls.n	81e <UART_Init+0x4ba>
     80a:	2b00      	cmp	r3, #0
     80c:	f000 81a0 	beq.w	b50 <UART_Init+0x7ec>
     810:	46e0      	mov	r8, ip
     812:	f04f 0c0b 	mov.w	ip, #11
     816:	461f      	mov	r7, r3
     818:	4693      	mov	fp, r2
     81a:	f8cd c000 	str.w	ip, [sp]
     81e:	f102 090c 	add.w	r9, r2, #12
     822:	fbb1 f9f9 	udiv	r9, r1, r9
     826:	fbb9 fcf5 	udiv	ip, r9, r5
     82a:	fb05 9a1c 	mls	sl, r5, ip, r9
     82e:	4550      	cmp	r0, sl
     830:	bf38      	it	cc
     832:	f10c 0c01 	addcc.w	ip, ip, #1
     836:	f1ac 0a03 	sub.w	sl, ip, #3
     83a:	45b2      	cmp	sl, r6
     83c:	d812      	bhi.n	864 <UART_Init+0x500>
     83e:	fbb9 f9fc 	udiv	r9, r9, ip
     842:	454d      	cmp	r5, r9
     844:	f0c0 80d6 	bcc.w	9f4 <UART_Init+0x690>
     848:	ebc9 0305 	rsb	r3, r9, r5
     84c:	429f      	cmp	r7, r3
     84e:	d909      	bls.n	864 <UART_Init+0x500>
     850:	2b00      	cmp	r3, #0
     852:	f000 8153 	beq.w	afc <UART_Init+0x798>
     856:	46e0      	mov	r8, ip
     858:	f04f 0c0c 	mov.w	ip, #12
     85c:	461f      	mov	r7, r3
     85e:	4693      	mov	fp, r2
     860:	f8cd c000 	str.w	ip, [sp]
     864:	f102 090d 	add.w	r9, r2, #13
     868:	fbb1 f9f9 	udiv	r9, r1, r9
     86c:	fbb9 fcf5 	udiv	ip, r9, r5
     870:	fb05 9a1c 	mls	sl, r5, ip, r9
     874:	4550      	cmp	r0, sl
     876:	bf38      	it	cc
     878:	f10c 0c01 	addcc.w	ip, ip, #1
     87c:	f1ac 0a03 	sub.w	sl, ip, #3
     880:	45b2      	cmp	sl, r6
     882:	d812      	bhi.n	8aa <UART_Init+0x546>
     884:	fbb9 f9fc 	udiv	r9, r9, ip
     888:	454d      	cmp	r5, r9
     88a:	f0c0 80b6 	bcc.w	9fa <UART_Init+0x696>
     88e:	ebc9 0305 	rsb	r3, r9, r5
     892:	429f      	cmp	r7, r3
     894:	d909      	bls.n	8aa <UART_Init+0x546>
     896:	2b00      	cmp	r3, #0
     898:	f000 8136 	beq.w	b08 <UART_Init+0x7a4>
     89c:	46e0      	mov	r8, ip
     89e:	f04f 0c0d 	mov.w	ip, #13
     8a2:	461f      	mov	r7, r3
     8a4:	4693      	mov	fp, r2
     8a6:	f8cd c000 	str.w	ip, [sp]
     8aa:	f102 090e 	add.w	r9, r2, #14
     8ae:	fbb1 f9f9 	udiv	r9, r1, r9
     8b2:	fbb9 fcf5 	udiv	ip, r9, r5
     8b6:	fb05 9a1c 	mls	sl, r5, ip, r9
     8ba:	4550      	cmp	r0, sl
     8bc:	bf38      	it	cc
     8be:	f10c 0c01 	addcc.w	ip, ip, #1
     8c2:	f1ac 0a03 	sub.w	sl, ip, #3
     8c6:	45b2      	cmp	sl, r6
     8c8:	d812      	bhi.n	8f0 <UART_Init+0x58c>
     8ca:	fbb9 f9fc 	udiv	r9, r9, ip
     8ce:	454d      	cmp	r5, r9
     8d0:	f0c0 8096 	bcc.w	a00 <UART_Init+0x69c>
     8d4:	ebc9 0305 	rsb	r3, r9, r5
     8d8:	429f      	cmp	r7, r3
     8da:	d909      	bls.n	8f0 <UART_Init+0x58c>
     8dc:	2b00      	cmp	r3, #0
     8de:	f000 8119 	beq.w	b14 <UART_Init+0x7b0>
     8e2:	46e0      	mov	r8, ip
     8e4:	f04f 0c0e 	mov.w	ip, #14
     8e8:	461f      	mov	r7, r3
     8ea:	4693      	mov	fp, r2
     8ec:	f8cd c000 	str.w	ip, [sp]
     8f0:	f102 090f 	add.w	r9, r2, #15
     8f4:	fbb1 f9f9 	udiv	r9, r1, r9
     8f8:	fbb9 fcf5 	udiv	ip, r9, r5
     8fc:	fb05 9a1c 	mls	sl, r5, ip, r9
     900:	4550      	cmp	r0, sl
     902:	d201      	bcs.n	908 <UART_Init+0x5a4>
     904:	f10c 0c01 	add.w	ip, ip, #1
     908:	f1ac 0a03 	sub.w	sl, ip, #3
     90c:	45b2      	cmp	sl, r6
     90e:	f67f add5 	bls.w	4bc <UART_Init+0x158>
     912:	2b00      	cmp	r3, #0
     914:	f47f ade5 	bne.w	4e2 <UART_Init+0x17e>
     918:	9c03      	ldr	r4, [sp, #12]
     91a:	465a      	mov	r2, fp
     91c:	f248 501f 	movw	r0, #34079	; 0x851f
     920:	eb05 0545 	add.w	r5, r5, r5, lsl #1
     924:	f2c5 10eb 	movt	r0, #20971	; 0x51eb
     928:	fba0 c305 	umull	ip, r3, r0, r5
     92c:	ebb7 1f53 	cmp.w	r7, r3, lsr #5
     930:	f04f 0300 	mov.w	r3, #0
     934:	f2c4 0301 	movt	r3, #16385	; 0x4001
     938:	d26a      	bcs.n	a10 <UART_Init+0x6ac>
     93a:	7b20      	ldrb	r0, [r4, #12]
     93c:	429c      	cmp	r4, r3
     93e:	f040 0180 	orr.w	r1, r0, #128	; 0x80
     942:	f3c8 2307 	ubfx	r3, r8, #8, #8
     946:	fa5f f888 	uxtb.w	r8, r8
     94a:	7321      	strb	r1, [r4, #12]
     94c:	7123      	strb	r3, [r4, #4]
     94e:	f884 8000 	strb.w	r8, [r4]
     952:	f000 8119 	beq.w	b88 <UART_Init+0x824>
     956:	f8dd c000 	ldr.w	ip, [sp]
     95a:	7b20      	ldrb	r0, [r4, #12]
     95c:	f00c 030f 	and.w	r3, ip, #15
     960:	ea43 1c02 	orr.w	ip, r3, r2, lsl #4
     964:	f000 017f 	and.w	r1, r0, #127	; 0x7f
     968:	fa5f f08c 	uxtb.w	r0, ip
     96c:	7321      	strb	r1, [r4, #12]
     96e:	f884 0028 	strb.w	r0, [r4, #40]	; 0x28
     972:	f8dd c008 	ldr.w	ip, [sp, #8]
     976:	7b20      	ldrb	r0, [r4, #12]
     978:	f89c 2005 	ldrb.w	r2, [ip, #5]
     97c:	f000 03c0 	and.w	r3, r0, #192	; 0xc0
     980:	2a01      	cmp	r2, #1
     982:	d053      	beq.n	a2c <UART_Init+0x6c8>
     984:	d23f      	bcs.n	a06 <UART_Init+0x6a2>
     986:	f8dd c008 	ldr.w	ip, [sp, #8]
     98a:	f89c 2004 	ldrb.w	r2, [ip, #4]
     98e:	b142      	cbz	r2, 9a2 <UART_Init+0x63e>
     990:	2a03      	cmp	r2, #3
     992:	f043 0308 	orr.w	r3, r3, #8
     996:	d059      	beq.n	a4c <UART_Init+0x6e8>
     998:	2a04      	cmp	r2, #4
     99a:	f000 808d 	beq.w	ab8 <UART_Init+0x754>
     99e:	2a02      	cmp	r2, #2
     9a0:	d057      	beq.n	a52 <UART_Init+0x6ee>
     9a2:	f8dd c008 	ldr.w	ip, [sp, #8]
     9a6:	f89c 2006 	ldrb.w	r2, [ip, #6]
     9aa:	2a01      	cmp	r2, #1
     9ac:	bf08      	it	eq
     9ae:	f043 0304 	orreq.w	r3, r3, #4
     9b2:	b2db      	uxtb	r3, r3
     9b4:	7323      	strb	r3, [r4, #12]
     9b6:	b005      	add	sp, #20
     9b8:	e8bd 8ff0 	ldmia.w	sp!, {r4, r5, r6, r7, r8, r9, sl, fp, pc}
     9bc:	1b5b      	subs	r3, r3, r5
     9be:	e5ab      	b.n	518 <UART_Init+0x1b4>
     9c0:	1b5b      	subs	r3, r3, r5
     9c2:	e5c8      	b.n	556 <UART_Init+0x1f2>
     9c4:	1b5b      	subs	r3, r3, r5
     9c6:	e5e8      	b.n	59a <UART_Init+0x236>
     9c8:	1b5b      	subs	r3, r3, r5
     9ca:	e608      	b.n	5de <UART_Init+0x27a>
     9cc:	1b5b      	subs	r3, r3, r5
     9ce:	e628      	b.n	622 <UART_Init+0x2be>
     9d0:	1b5b      	subs	r3, r3, r5
     9d2:	e648      	b.n	666 <UART_Init+0x302>
     9d4:	1b5b      	subs	r3, r3, r5
     9d6:	e668      	b.n	6aa <UART_Init+0x346>
     9d8:	1b5b      	subs	r3, r3, r5
     9da:	e688      	b.n	6ee <UART_Init+0x38a>
     9dc:	ebc5 0309 	rsb	r3, r5, r9
     9e0:	e6a8      	b.n	734 <UART_Init+0x3d0>
     9e2:	ebc5 0309 	rsb	r3, r5, r9
     9e6:	e6c8      	b.n	77a <UART_Init+0x416>
     9e8:	ebc5 0309 	rsb	r3, r5, r9
     9ec:	e6e8      	b.n	7c0 <UART_Init+0x45c>
     9ee:	ebc5 0309 	rsb	r3, r5, r9
     9f2:	e708      	b.n	806 <UART_Init+0x4a2>
     9f4:	ebc5 0309 	rsb	r3, r5, r9
     9f8:	e728      	b.n	84c <UART_Init+0x4e8>
     9fa:	ebc5 0309 	rsb	r3, r5, r9
     9fe:	e748      	b.n	892 <UART_Init+0x52e>
     a00:	ebc5 0309 	rsb	r3, r5, r9
     a04:	e768      	b.n	8d8 <UART_Init+0x574>
     a06:	2a02      	cmp	r2, #2
     a08:	d01d      	beq.n	a46 <UART_Init+0x6e2>
     a0a:	f043 0303 	orr.w	r3, r3, #3
     a0e:	e7ba      	b.n	986 <UART_Init+0x622>
     a10:	429c      	cmp	r4, r3
     a12:	d1ae      	bne.n	972 <UART_Init+0x60e>
     a14:	2100      	movs	r1, #0
     a16:	f2c4 0101 	movt	r1, #16385	; 0x4001
     a1a:	7b0a      	ldrb	r2, [r1, #12]
     a1c:	f8dd c008 	ldr.w	ip, [sp, #8]
     a20:	f002 03c0 	and.w	r3, r2, #192	; 0xc0
     a24:	f89c 2005 	ldrb.w	r2, [ip, #5]
     a28:	2a01      	cmp	r2, #1
     a2a:	d1ab      	bne.n	984 <UART_Init+0x620>
     a2c:	f043 0301 	orr.w	r3, r3, #1
     a30:	e7a9      	b.n	986 <UART_Init+0x622>
     a32:	4871      	ldr	r0, [pc, #452]	; (bf8 <UART_Init+0x894>)
     a34:	21c2      	movs	r1, #194	; 0xc2
     a36:	f001 f989 	bl	1d4c <check_failed>
     a3a:	e4ca      	b.n	3d2 <UART_Init+0x6e>
     a3c:	486e      	ldr	r0, [pc, #440]	; (bf8 <UART_Init+0x894>)
     a3e:	21c0      	movs	r1, #192	; 0xc0
     a40:	f001 f984 	bl	1d4c <check_failed>
     a44:	e4b3      	b.n	3ae <UART_Init+0x4a>
     a46:	f043 0302 	orr.w	r3, r3, #2
     a4a:	e79c      	b.n	986 <UART_Init+0x622>
     a4c:	f043 0320 	orr.w	r3, r3, #32
     a50:	e7a7      	b.n	9a2 <UART_Init+0x63e>
     a52:	f043 0310 	orr.w	r3, r3, #16
     a56:	e7a4      	b.n	9a2 <UART_Init+0x63e>
     a58:	2000      	movs	r0, #0
     a5a:	f884 0024 	strb.w	r0, [r4, #36]	; 0x24
     a5e:	9b02      	ldr	r3, [sp, #8]
     a60:	681d      	ldr	r5, [r3, #0]
     a62:	e509      	b.n	478 <UART_Init+0x114>
     a64:	2007      	movs	r0, #7
     a66:	2300      	movs	r3, #0
     a68:	7220      	strb	r0, [r4, #8]
     a6a:	7223      	strb	r3, [r4, #8]
     a6c:	f894 b014 	ldrb.w	fp, [r4, #20]
     a70:	ea5f 77cb 	movs.w	r7, fp, lsl #31
     a74:	d504      	bpl.n	a80 <UART_Init+0x71c>
     a76:	4623      	mov	r3, r4
     a78:	781a      	ldrb	r2, [r3, #0]
     a7a:	7d19      	ldrb	r1, [r3, #20]
     a7c:	07cd      	lsls	r5, r1, #31
     a7e:	d4fb      	bmi.n	a78 <UART_Init+0x714>
     a80:	2100      	movs	r1, #0
     a82:	f2c4 0101 	movt	r1, #16385	; 0x4001
     a86:	2280      	movs	r2, #128	; 0x80
     a88:	f881 2030 	strb.w	r2, [r1, #48]	; 0x30
     a8c:	7d0d      	ldrb	r5, [r1, #20]
     a8e:	2300      	movs	r3, #0
     a90:	06a8      	lsls	r0, r5, #26
     a92:	f2c4 0301 	movt	r3, #16385	; 0x4001
     a96:	d5f9      	bpl.n	a8c <UART_Init+0x728>
     a98:	2700      	movs	r7, #0
     a9a:	f883 7030 	strb.w	r7, [r3, #48]	; 0x30
     a9e:	605f      	str	r7, [r3, #4]
     aa0:	731f      	strb	r7, [r3, #12]
     aa2:	621f      	str	r7, [r3, #32]
     aa4:	741f      	strb	r7, [r3, #16]
     aa6:	f883 704c 	strb.w	r7, [r3, #76]	; 0x4c
     aaa:	f883 7054 	strb.w	r7, [r3, #84]	; 0x54
     aae:	f883 7050 	strb.w	r7, [r3, #80]	; 0x50
     ab2:	7e1a      	ldrb	r2, [r3, #24]
     ab4:	7d1b      	ldrb	r3, [r3, #20]
     ab6:	e4c7      	b.n	448 <UART_Init+0xe4>
     ab8:	f043 0330 	orr.w	r3, r3, #48	; 0x30
     abc:	e771      	b.n	9a2 <UART_Init+0x63e>
     abe:	2704      	movs	r7, #4
     ac0:	9700      	str	r7, [sp, #0]
     ac2:	9c03      	ldr	r4, [sp, #12]
     ac4:	46e0      	mov	r8, ip
     ac6:	2700      	movs	r7, #0
     ac8:	e728      	b.n	91c <UART_Init+0x5b8>
     aca:	9c03      	ldr	r4, [sp, #12]
     acc:	46e0      	mov	r8, ip
     ace:	9300      	str	r3, [sp, #0]
     ad0:	2700      	movs	r7, #0
     ad2:	e723      	b.n	91c <UART_Init+0x5b8>
     ad4:	2001      	movs	r0, #1
     ad6:	9c03      	ldr	r4, [sp, #12]
     ad8:	46e0      	mov	r8, ip
     ada:	9000      	str	r0, [sp, #0]
     adc:	2700      	movs	r7, #0
     ade:	e71d      	b.n	91c <UART_Init+0x5b8>
     ae0:	2102      	movs	r1, #2
     ae2:	9c03      	ldr	r4, [sp, #12]
     ae4:	46e0      	mov	r8, ip
     ae6:	9100      	str	r1, [sp, #0]
     ae8:	2700      	movs	r7, #0
     aea:	e717      	b.n	91c <UART_Init+0x5b8>
     aec:	46e0      	mov	r8, ip
     aee:	f04f 0c03 	mov.w	ip, #3
     af2:	9c03      	ldr	r4, [sp, #12]
     af4:	f8cd c000 	str.w	ip, [sp]
     af8:	2700      	movs	r7, #0
     afa:	e70f      	b.n	91c <UART_Init+0x5b8>
     afc:	200c      	movs	r0, #12
     afe:	9c03      	ldr	r4, [sp, #12]
     b00:	46e0      	mov	r8, ip
     b02:	9000      	str	r0, [sp, #0]
     b04:	2700      	movs	r7, #0
     b06:	e709      	b.n	91c <UART_Init+0x5b8>
     b08:	210d      	movs	r1, #13
     b0a:	9c03      	ldr	r4, [sp, #12]
     b0c:	46e0      	mov	r8, ip
     b0e:	9100      	str	r1, [sp, #0]
     b10:	2700      	movs	r7, #0
     b12:	e703      	b.n	91c <UART_Init+0x5b8>
     b14:	270e      	movs	r7, #14
     b16:	9700      	str	r7, [sp, #0]
     b18:	9c03      	ldr	r4, [sp, #12]
     b1a:	46e0      	mov	r8, ip
     b1c:	2700      	movs	r7, #0
     b1e:	e6fd      	b.n	91c <UART_Init+0x5b8>
     b20:	230f      	movs	r3, #15
     b22:	9c03      	ldr	r4, [sp, #12]
     b24:	46e0      	mov	r8, ip
     b26:	9300      	str	r3, [sp, #0]
     b28:	2700      	movs	r7, #0
     b2a:	e6f7      	b.n	91c <UART_Init+0x5b8>
     b2c:	2108      	movs	r1, #8
     b2e:	9c03      	ldr	r4, [sp, #12]
     b30:	46e0      	mov	r8, ip
     b32:	9100      	str	r1, [sp, #0]
     b34:	2700      	movs	r7, #0
     b36:	e6f1      	b.n	91c <UART_Init+0x5b8>
     b38:	2709      	movs	r7, #9
     b3a:	9700      	str	r7, [sp, #0]
     b3c:	9c03      	ldr	r4, [sp, #12]
     b3e:	46e0      	mov	r8, ip
     b40:	2700      	movs	r7, #0
     b42:	e6eb      	b.n	91c <UART_Init+0x5b8>
     b44:	230a      	movs	r3, #10
     b46:	9c03      	ldr	r4, [sp, #12]
     b48:	46e0      	mov	r8, ip
     b4a:	9300      	str	r3, [sp, #0]
     b4c:	2700      	movs	r7, #0
     b4e:	e6e5      	b.n	91c <UART_Init+0x5b8>
     b50:	46e0      	mov	r8, ip
     b52:	f04f 0c0b 	mov.w	ip, #11
     b56:	9c03      	ldr	r4, [sp, #12]
     b58:	f8cd c000 	str.w	ip, [sp]
     b5c:	2700      	movs	r7, #0
     b5e:	e6dd      	b.n	91c <UART_Init+0x5b8>
     b60:	2006      	movs	r0, #6
     b62:	9c03      	ldr	r4, [sp, #12]
     b64:	46e0      	mov	r8, ip
     b66:	9000      	str	r0, [sp, #0]
     b68:	2700      	movs	r7, #0
     b6a:	e6d7      	b.n	91c <UART_Init+0x5b8>
     b6c:	46e0      	mov	r8, ip
     b6e:	f04f 0c07 	mov.w	ip, #7
     b72:	9c03      	ldr	r4, [sp, #12]
     b74:	f8cd c000 	str.w	ip, [sp]
     b78:	2700      	movs	r7, #0
     b7a:	e6cf      	b.n	91c <UART_Init+0x5b8>
     b7c:	2305      	movs	r3, #5
     b7e:	9c03      	ldr	r4, [sp, #12]
     b80:	46e0      	mov	r8, ip
     b82:	9300      	str	r3, [sp, #0]
     b84:	2700      	movs	r7, #0
     b86:	e6c9      	b.n	91c <UART_Init+0x5b8>
     b88:	9b00      	ldr	r3, [sp, #0]
     b8a:	7b20      	ldrb	r0, [r4, #12]
     b8c:	0112      	lsls	r2, r2, #4
     b8e:	b2d1      	uxtb	r1, r2
     b90:	f003 0c0f 	and.w	ip, r3, #15
     b94:	f000 027f 	and.w	r2, r0, #127	; 0x7f
     b98:	ea41 030c 	orr.w	r3, r1, ip
     b9c:	7322      	strb	r2, [r4, #12]
     b9e:	62a3      	str	r3, [r4, #40]	; 0x28
     ba0:	e738      	b.n	a14 <UART_Init+0x6b0>
     ba2:	f04f 7080 	mov.w	r0, #16777216	; 0x1000000
     ba6:	2101      	movs	r1, #1
     ba8:	f7ff fab0 	bl	10c <CLKPWR_ConfigPPWR>
     bac:	e432      	b.n	414 <UART_Init+0xb0>
     bae:	f04f 7000 	mov.w	r0, #33554432	; 0x2000000
     bb2:	2101      	movs	r1, #1
     bb4:	f7ff faaa 	bl	10c <CLKPWR_ConfigPPWR>
     bb8:	e42c      	b.n	414 <UART_Init+0xb0>
     bba:	2008      	movs	r0, #8
     bbc:	2101      	movs	r1, #1
     bbe:	f7ff faa5 	bl	10c <CLKPWR_ConfigPPWR>
     bc2:	e41a      	b.n	3fa <UART_Init+0x96>
     bc4:	2010      	movs	r0, #16
     bc6:	2101      	movs	r1, #1
     bc8:	f7ff faa0 	bl	10c <CLKPWR_ConfigPPWR>
     bcc:	e41c      	b.n	408 <UART_Init+0xa4>
     bce:	2006      	movs	r0, #6
     bd0:	f7ff fa7c 	bl	cc <CLKPWR_GetPCLK>
     bd4:	4606      	mov	r6, r0
     bd6:	e45d      	b.n	494 <UART_Init+0x130>
     bd8:	2008      	movs	r0, #8
     bda:	f7ff fa77 	bl	cc <CLKPWR_GetPCLK>
     bde:	4606      	mov	r6, r0
     be0:	e458      	b.n	494 <UART_Init+0x130>
     be2:	2030      	movs	r0, #48	; 0x30
     be4:	f7ff fa72 	bl	cc <CLKPWR_GetPCLK>
     be8:	4606      	mov	r6, r0
     bea:	e453      	b.n	494 <UART_Init+0x130>
     bec:	2032      	movs	r0, #50	; 0x32
     bee:	f7ff fa6d 	bl	cc <CLKPWR_GetPCLK>
     bf2:	4606      	mov	r6, r0
     bf4:	e44e      	b.n	494 <UART_Init+0x130>
     bf6:	bf00      	nop
     bf8:	0000364c 	.word	0x0000364c

00000bfc <UART_ConfigStructInit>:
     bfc:	2300      	movs	r3, #0
     bfe:	f44f 5116 	mov.w	r1, #9600	; 0x2580
     c02:	2203      	movs	r2, #3
     c04:	6001      	str	r1, [r0, #0]
     c06:	7142      	strb	r2, [r0, #5]
     c08:	7103      	strb	r3, [r0, #4]
     c0a:	7183      	strb	r3, [r0, #6]
     c0c:	4770      	bx	lr
     c0e:	bf00      	nop

00000c10 <UART_SendByte>:
     c10:	b538      	push	{r3, r4, r5, lr}
     c12:	f44f 4340 	mov.w	r3, #49152	; 0xc000
     c16:	f2c4 0300 	movt	r3, #16384	; 0x4000
     c1a:	4298      	cmp	r0, r3
     c1c:	4604      	mov	r4, r0
     c1e:	460d      	mov	r5, r1
     c20:	d015      	beq.n	c4e <UART_SendByte+0x3e>
     c22:	2000      	movs	r0, #0
     c24:	f2c4 0001 	movt	r0, #16385	; 0x4001
     c28:	4284      	cmp	r4, r0
     c2a:	d010      	beq.n	c4e <UART_SendByte+0x3e>
     c2c:	f44f 4100 	mov.w	r1, #32768	; 0x8000
     c30:	f2c4 0109 	movt	r1, #16393	; 0x4009
     c34:	428c      	cmp	r4, r1
     c36:	d00a      	beq.n	c4e <UART_SendByte+0x3e>
     c38:	f44f 4240 	mov.w	r2, #49152	; 0xc000
     c3c:	f2c4 0209 	movt	r2, #16393	; 0x4009
     c40:	4294      	cmp	r4, r2
     c42:	d004      	beq.n	c4e <UART_SendByte+0x3e>
     c44:	4803      	ldr	r0, [pc, #12]	; (c54 <UART_SendByte+0x44>)
     c46:	f240 11cf 	movw	r1, #463	; 0x1cf
     c4a:	f001 f87f 	bl	1d4c <check_failed>
     c4e:	7025      	strb	r5, [r4, #0]
     c50:	bd38      	pop	{r3, r4, r5, pc}
     c52:	bf00      	nop
     c54:	0000364c 	.word	0x0000364c

00000c58 <UART_Send>:
     c58:	2b01      	cmp	r3, #1
     c5a:	e92d 41f0 	stmdb	sp!, {r4, r5, r6, r7, r8, lr}
     c5e:	4604      	mov	r4, r0
     c60:	460d      	mov	r5, r1
     c62:	4617      	mov	r7, r2
     c64:	f000 809f 	beq.w	da6 <UART_Send+0x14e>
     c68:	2a00      	cmp	r2, #0
     c6a:	f000 8149 	beq.w	f00 <UART_Send+0x2a8>
     c6e:	7d03      	ldrb	r3, [r0, #20]
     c70:	f013 0320 	ands.w	r3, r3, #32
     c74:	f000 8093 	beq.w	d9e <UART_Send+0x146>
     c78:	4688      	mov	r8, r1
     c7a:	2600      	movs	r6, #0
     c7c:	e087      	b.n	d8e <UART_Send+0x136>
     c7e:	f898 1001 	ldrb.w	r1, [r8, #1]
     c82:	4620      	mov	r0, r4
     c84:	f7ff ffc4 	bl	c10 <UART_SendByte>
     c88:	1cb3      	adds	r3, r6, #2
     c8a:	2f02      	cmp	r7, #2
     c8c:	f000 8087 	beq.w	d9e <UART_Send+0x146>
     c90:	f898 1002 	ldrb.w	r1, [r8, #2]
     c94:	4620      	mov	r0, r4
     c96:	f7ff ffbb 	bl	c10 <UART_SendByte>
     c9a:	1cf3      	adds	r3, r6, #3
     c9c:	2f03      	cmp	r7, #3
     c9e:	d07e      	beq.n	d9e <UART_Send+0x146>
     ca0:	f898 1003 	ldrb.w	r1, [r8, #3]
     ca4:	4620      	mov	r0, r4
     ca6:	f7ff ffb3 	bl	c10 <UART_SendByte>
     caa:	1d33      	adds	r3, r6, #4
     cac:	2f04      	cmp	r7, #4
     cae:	d076      	beq.n	d9e <UART_Send+0x146>
     cb0:	f898 1004 	ldrb.w	r1, [r8, #4]
     cb4:	4620      	mov	r0, r4
     cb6:	f7ff ffab 	bl	c10 <UART_SendByte>
     cba:	1d73      	adds	r3, r6, #5
     cbc:	2f05      	cmp	r7, #5
     cbe:	d06e      	beq.n	d9e <UART_Send+0x146>
     cc0:	f898 1005 	ldrb.w	r1, [r8, #5]
     cc4:	4620      	mov	r0, r4
     cc6:	f7ff ffa3 	bl	c10 <UART_SendByte>
     cca:	1db3      	adds	r3, r6, #6
     ccc:	2f06      	cmp	r7, #6
     cce:	d066      	beq.n	d9e <UART_Send+0x146>
     cd0:	f898 1006 	ldrb.w	r1, [r8, #6]
     cd4:	4620      	mov	r0, r4
     cd6:	f7ff ff9b 	bl	c10 <UART_SendByte>
     cda:	1df3      	adds	r3, r6, #7
     cdc:	2f07      	cmp	r7, #7
     cde:	d05e      	beq.n	d9e <UART_Send+0x146>
     ce0:	f898 1007 	ldrb.w	r1, [r8, #7]
     ce4:	4620      	mov	r0, r4
     ce6:	f7ff ff93 	bl	c10 <UART_SendByte>
     cea:	2f08      	cmp	r7, #8
     cec:	f106 0308 	add.w	r3, r6, #8
     cf0:	d055      	beq.n	d9e <UART_Send+0x146>
     cf2:	f898 1008 	ldrb.w	r1, [r8, #8]
     cf6:	4620      	mov	r0, r4
     cf8:	f7ff ff8a 	bl	c10 <UART_SendByte>
     cfc:	2f09      	cmp	r7, #9
     cfe:	f106 0309 	add.w	r3, r6, #9
     d02:	d04c      	beq.n	d9e <UART_Send+0x146>
     d04:	f898 1009 	ldrb.w	r1, [r8, #9]
     d08:	4620      	mov	r0, r4
     d0a:	f7ff ff81 	bl	c10 <UART_SendByte>
     d0e:	2f0a      	cmp	r7, #10
     d10:	f106 030a 	add.w	r3, r6, #10
     d14:	d043      	beq.n	d9e <UART_Send+0x146>
     d16:	f898 100a 	ldrb.w	r1, [r8, #10]
     d1a:	4620      	mov	r0, r4
     d1c:	f7ff ff78 	bl	c10 <UART_SendByte>
     d20:	2f0b      	cmp	r7, #11
     d22:	f106 030b 	add.w	r3, r6, #11
     d26:	d03a      	beq.n	d9e <UART_Send+0x146>
     d28:	f898 100b 	ldrb.w	r1, [r8, #11]
     d2c:	4620      	mov	r0, r4
     d2e:	f7ff ff6f 	bl	c10 <UART_SendByte>
     d32:	2f0c      	cmp	r7, #12
     d34:	f106 030c 	add.w	r3, r6, #12
     d38:	d031      	beq.n	d9e <UART_Send+0x146>
     d3a:	f898 100c 	ldrb.w	r1, [r8, #12]
     d3e:	4620      	mov	r0, r4
     d40:	f7ff ff66 	bl	c10 <UART_SendByte>
     d44:	2f0d      	cmp	r7, #13
     d46:	f106 030d 	add.w	r3, r6, #13
     d4a:	d028      	beq.n	d9e <UART_Send+0x146>
     d4c:	f898 100d 	ldrb.w	r1, [r8, #13]
     d50:	4620      	mov	r0, r4
     d52:	f7ff ff5d 	bl	c10 <UART_SendByte>
     d56:	2f0e      	cmp	r7, #14
     d58:	f106 030e 	add.w	r3, r6, #14
     d5c:	d01f      	beq.n	d9e <UART_Send+0x146>
     d5e:	f898 100e 	ldrb.w	r1, [r8, #14]
     d62:	4620      	mov	r0, r4
     d64:	f7ff ff54 	bl	c10 <UART_SendByte>
     d68:	2f0f      	cmp	r7, #15
     d6a:	f106 030f 	add.w	r3, r6, #15
     d6e:	d016      	beq.n	d9e <UART_Send+0x146>
     d70:	f898 100f 	ldrb.w	r1, [r8, #15]
     d74:	4620      	mov	r0, r4
     d76:	f7ff ff4b 	bl	c10 <UART_SendByte>
     d7a:	3610      	adds	r6, #16
     d7c:	3f10      	subs	r7, #16
     d7e:	f108 0810 	add.w	r8, r8, #16
     d82:	d00d      	beq.n	da0 <UART_Send+0x148>
     d84:	f894 c014 	ldrb.w	ip, [r4, #20]
     d88:	ea5f 618c 	movs.w	r1, ip, lsl #26
     d8c:	d508      	bpl.n	da0 <UART_Send+0x148>
     d8e:	5da9      	ldrb	r1, [r5, r6]
     d90:	4620      	mov	r0, r4
     d92:	f7ff ff3d 	bl	c10 <UART_SendByte>
     d96:	1c73      	adds	r3, r6, #1
     d98:	2f01      	cmp	r7, #1
     d9a:	f47f af70 	bne.w	c7e <UART_Send+0x26>
     d9e:	461e      	mov	r6, r3
     da0:	4630      	mov	r0, r6
     da2:	e8bd 81f0 	ldmia.w	sp!, {r4, r5, r6, r7, r8, pc}
     da6:	2a00      	cmp	r2, #0
     da8:	f000 80aa 	beq.w	f00 <UART_Send+0x2a8>
     dac:	4688      	mov	r8, r1
     dae:	2600      	movs	r6, #0
     db0:	7d21      	ldrb	r1, [r4, #20]
     db2:	0688      	lsls	r0, r1, #26
     db4:	d413      	bmi.n	dde <UART_Send+0x186>
     db6:	f04f 33ff 	mov.w	r3, #4294967295
     dba:	e009      	b.n	dd0 <UART_Send+0x178>
     dbc:	7d22      	ldrb	r2, [r4, #20]
     dbe:	3b01      	subs	r3, #1
     dc0:	0690      	lsls	r0, r2, #26
     dc2:	d40a      	bmi.n	dda <UART_Send+0x182>
     dc4:	7d22      	ldrb	r2, [r4, #20]
     dc6:	1e8b      	subs	r3, r1, #2
     dc8:	0692      	lsls	r2, r2, #26
     dca:	d406      	bmi.n	dda <UART_Send+0x182>
     dcc:	2b00      	cmp	r3, #0
     dce:	d0e7      	beq.n	da0 <UART_Send+0x148>
     dd0:	7d20      	ldrb	r0, [r4, #20]
     dd2:	3b01      	subs	r3, #1
     dd4:	0682      	lsls	r2, r0, #26
     dd6:	4619      	mov	r1, r3
     dd8:	d5f0      	bpl.n	dbc <UART_Send+0x164>
     dda:	2b00      	cmp	r3, #0
     ddc:	d0e0      	beq.n	da0 <UART_Send+0x148>
     dde:	2f00      	cmp	r7, #0
     de0:	d0de      	beq.n	da0 <UART_Send+0x148>
     de2:	5da9      	ldrb	r1, [r5, r6]
     de4:	4620      	mov	r0, r4
     de6:	f7ff ff13 	bl	c10 <UART_SendByte>
     dea:	1c73      	adds	r3, r6, #1
     dec:	2f01      	cmp	r7, #1
     dee:	d0d6      	beq.n	d9e <UART_Send+0x146>
     df0:	f898 1001 	ldrb.w	r1, [r8, #1]
     df4:	4620      	mov	r0, r4
     df6:	f7ff ff0b 	bl	c10 <UART_SendByte>
     dfa:	1cb3      	adds	r3, r6, #2
     dfc:	2f02      	cmp	r7, #2
     dfe:	d0ce      	beq.n	d9e <UART_Send+0x146>
     e00:	f898 1002 	ldrb.w	r1, [r8, #2]
     e04:	4620      	mov	r0, r4
     e06:	f7ff ff03 	bl	c10 <UART_SendByte>
     e0a:	1cf3      	adds	r3, r6, #3
     e0c:	2f03      	cmp	r7, #3
     e0e:	d0c6      	beq.n	d9e <UART_Send+0x146>
     e10:	f898 1003 	ldrb.w	r1, [r8, #3]
     e14:	4620      	mov	r0, r4
     e16:	f7ff fefb 	bl	c10 <UART_SendByte>
     e1a:	1d33      	adds	r3, r6, #4
     e1c:	2f04      	cmp	r7, #4
     e1e:	d0be      	beq.n	d9e <UART_Send+0x146>
     e20:	f898 1004 	ldrb.w	r1, [r8, #4]
     e24:	4620      	mov	r0, r4
     e26:	f7ff fef3 	bl	c10 <UART_SendByte>
     e2a:	1d73      	adds	r3, r6, #5
     e2c:	2f05      	cmp	r7, #5
     e2e:	d0b6      	beq.n	d9e <UART_Send+0x146>
     e30:	f898 1005 	ldrb.w	r1, [r8, #5]
     e34:	4620      	mov	r0, r4
     e36:	f7ff feeb 	bl	c10 <UART_SendByte>
     e3a:	1db3      	adds	r3, r6, #6
     e3c:	2f06      	cmp	r7, #6
     e3e:	d0ae      	beq.n	d9e <UART_Send+0x146>
     e40:	f898 1006 	ldrb.w	r1, [r8, #6]
     e44:	4620      	mov	r0, r4
     e46:	f7ff fee3 	bl	c10 <UART_SendByte>
     e4a:	1df3      	adds	r3, r6, #7
     e4c:	2f07      	cmp	r7, #7
     e4e:	d0a6      	beq.n	d9e <UART_Send+0x146>
     e50:	f898 1007 	ldrb.w	r1, [r8, #7]
     e54:	4620      	mov	r0, r4
     e56:	f7ff fedb 	bl	c10 <UART_SendByte>
     e5a:	2f08      	cmp	r7, #8
     e5c:	f106 0308 	add.w	r3, r6, #8
     e60:	d09d      	beq.n	d9e <UART_Send+0x146>
     e62:	f898 1008 	ldrb.w	r1, [r8, #8]
     e66:	4620      	mov	r0, r4
     e68:	f7ff fed2 	bl	c10 <UART_SendByte>
     e6c:	2f09      	cmp	r7, #9
     e6e:	f106 0309 	add.w	r3, r6, #9
     e72:	d094      	beq.n	d9e <UART_Send+0x146>
     e74:	f898 1009 	ldrb.w	r1, [r8, #9]
     e78:	4620      	mov	r0, r4
     e7a:	f7ff fec9 	bl	c10 <UART_SendByte>
     e7e:	2f0a      	cmp	r7, #10
     e80:	f106 030a 	add.w	r3, r6, #10
     e84:	d08b      	beq.n	d9e <UART_Send+0x146>
     e86:	f898 100a 	ldrb.w	r1, [r8, #10]
     e8a:	4620      	mov	r0, r4
     e8c:	f7ff fec0 	bl	c10 <UART_SendByte>
     e90:	2f0b      	cmp	r7, #11
     e92:	f106 030b 	add.w	r3, r6, #11
     e96:	d082      	beq.n	d9e <UART_Send+0x146>
     e98:	f898 100b 	ldrb.w	r1, [r8, #11]
     e9c:	4620      	mov	r0, r4
     e9e:	f7ff feb7 	bl	c10 <UART_SendByte>
     ea2:	2f0c      	cmp	r7, #12
     ea4:	f106 030c 	add.w	r3, r6, #12
     ea8:	f43f af79 	beq.w	d9e <UART_Send+0x146>
     eac:	f898 100c 	ldrb.w	r1, [r8, #12]
     eb0:	4620      	mov	r0, r4
     eb2:	f7ff fead 	bl	c10 <UART_SendByte>
     eb6:	2f0d      	cmp	r7, #13
     eb8:	f106 030d 	add.w	r3, r6, #13
     ebc:	f43f af6f 	beq.w	d9e <UART_Send+0x146>
     ec0:	f898 100d 	ldrb.w	r1, [r8, #13]
     ec4:	4620      	mov	r0, r4
     ec6:	f7ff fea3 	bl	c10 <UART_SendByte>
     eca:	2f0e      	cmp	r7, #14
     ecc:	f106 030e 	add.w	r3, r6, #14
     ed0:	f43f af65 	beq.w	d9e <UART_Send+0x146>
     ed4:	f898 100e 	ldrb.w	r1, [r8, #14]
     ed8:	4620      	mov	r0, r4
     eda:	f7ff fe99 	bl	c10 <UART_SendByte>
     ede:	2f0f      	cmp	r7, #15
     ee0:	f106 030f 	add.w	r3, r6, #15
     ee4:	f43f af5b 	beq.w	d9e <UART_Send+0x146>
     ee8:	f898 100f 	ldrb.w	r1, [r8, #15]
     eec:	4620      	mov	r0, r4
     eee:	f7ff fe8f 	bl	c10 <UART_SendByte>
     ef2:	3610      	adds	r6, #16
     ef4:	3f10      	subs	r7, #16
     ef6:	f108 0810 	add.w	r8, r8, #16
     efa:	f47f af59 	bne.w	db0 <UART_Send+0x158>
     efe:	e74f      	b.n	da0 <UART_Send+0x148>
     f00:	463e      	mov	r6, r7
     f02:	e74d      	b.n	da0 <UART_Send+0x148>

00000f04 <UART_FIFOConfig>:
     f04:	b538      	push	{r3, r4, r5, lr}
     f06:	f44f 4340 	mov.w	r3, #49152	; 0xc000
     f0a:	f2c4 0300 	movt	r3, #16384	; 0x4000
     f0e:	4298      	cmp	r0, r3
     f10:	4605      	mov	r5, r0
     f12:	460c      	mov	r4, r1
     f14:	d015      	beq.n	f42 <UART_FIFOConfig+0x3e>
     f16:	2000      	movs	r0, #0
     f18:	f2c4 0001 	movt	r0, #16385	; 0x4001
     f1c:	4285      	cmp	r5, r0
     f1e:	d010      	beq.n	f42 <UART_FIFOConfig+0x3e>
     f20:	f44f 4200 	mov.w	r2, #32768	; 0x8000
     f24:	f2c4 0209 	movt	r2, #16393	; 0x4009
     f28:	4295      	cmp	r5, r2
     f2a:	d00a      	beq.n	f42 <UART_FIFOConfig+0x3e>
     f2c:	f44f 4c40 	mov.w	ip, #49152	; 0xc000
     f30:	f2c4 0c09 	movt	ip, #16393	; 0x4009
     f34:	4565      	cmp	r5, ip
     f36:	d004      	beq.n	f42 <UART_FIFOConfig+0x3e>
     f38:	4820      	ldr	r0, [pc, #128]	; (fbc <UART_FIFOConfig+0xb8>)
     f3a:	f44f 714b 	mov.w	r1, #812	; 0x32c
     f3e:	f000 ff05 	bl	1d4c <check_failed>
     f42:	78e3      	ldrb	r3, [r4, #3]
     f44:	2b03      	cmp	r3, #3
     f46:	d832      	bhi.n	fae <UART_FIFOConfig+0xaa>
     f48:	78a0      	ldrb	r0, [r4, #2]
     f4a:	2801      	cmp	r0, #1
     f4c:	d904      	bls.n	f58 <UART_FIFOConfig+0x54>
     f4e:	481b      	ldr	r0, [pc, #108]	; (fbc <UART_FIFOConfig+0xb8>)
     f50:	f240 312e 	movw	r1, #814	; 0x32e
     f54:	f000 fefa 	bl	1d4c <check_failed>
     f58:	7822      	ldrb	r2, [r4, #0]
     f5a:	2a01      	cmp	r2, #1
     f5c:	d904      	bls.n	f68 <UART_FIFOConfig+0x64>
     f5e:	4817      	ldr	r0, [pc, #92]	; (fbc <UART_FIFOConfig+0xb8>)
     f60:	f240 312f 	movw	r1, #815	; 0x32f
     f64:	f000 fef2 	bl	1d4c <check_failed>
     f68:	7862      	ldrb	r2, [r4, #1]
     f6a:	2a01      	cmp	r2, #1
     f6c:	d905      	bls.n	f7a <UART_FIFOConfig+0x76>
     f6e:	4813      	ldr	r0, [pc, #76]	; (fbc <UART_FIFOConfig+0xb8>)
     f70:	f44f 714c 	mov.w	r1, #816	; 0x330
     f74:	f000 feea 	bl	1d4c <check_failed>
     f78:	7862      	ldrb	r2, [r4, #1]
     f7a:	78e0      	ldrb	r0, [r4, #3]
     f7c:	f894 c002 	ldrb.w	ip, [r4, #2]
     f80:	2802      	cmp	r0, #2
     f82:	bf9a      	itte	ls
     f84:	490e      	ldrls	r1, [pc, #56]	; (fc0 <UART_FIFOConfig+0xbc>)
     f86:	5c08      	ldrbls	r0, [r1, r0]
     f88:	20c1      	movhi	r0, #193	; 0xc1
     f8a:	2a01      	cmp	r2, #1
     f8c:	7822      	ldrb	r2, [r4, #0]
     f8e:	bf08      	it	eq
     f90:	f040 0004 	orreq.w	r0, r0, #4
     f94:	2a01      	cmp	r2, #1
     f96:	bf08      	it	eq
     f98:	f040 0002 	orreq.w	r0, r0, #2
     f9c:	f1bc 0f01 	cmp.w	ip, #1
     fa0:	bf08      	it	eq
     fa2:	f040 0008 	orreq.w	r0, r0, #8
     fa6:	f000 03cf 	and.w	r3, r0, #207	; 0xcf
     faa:	722b      	strb	r3, [r5, #8]
     fac:	bd38      	pop	{r3, r4, r5, pc}
     fae:	4803      	ldr	r0, [pc, #12]	; (fbc <UART_FIFOConfig+0xb8>)
     fb0:	f240 312d 	movw	r1, #813	; 0x32d
     fb4:	f000 feca 	bl	1d4c <check_failed>
     fb8:	e7c6      	b.n	f48 <UART_FIFOConfig+0x44>
     fba:	bf00      	nop
     fbc:	0000364c 	.word	0x0000364c
     fc0:	00003644 	.word	0x00003644

00000fc4 <UART_FIFOConfigStructInit>:
     fc4:	2200      	movs	r2, #0
     fc6:	2301      	movs	r3, #1
     fc8:	7082      	strb	r2, [r0, #2]
     fca:	70c2      	strb	r2, [r0, #3]
     fcc:	7003      	strb	r3, [r0, #0]
     fce:	7043      	strb	r3, [r0, #1]
     fd0:	4770      	bx	lr
     fd2:	bf00      	nop

00000fd4 <UART_TxCmd>:
     fd4:	b538      	push	{r3, r4, r5, lr}
     fd6:	f44f 4340 	mov.w	r3, #49152	; 0xc000
     fda:	f2c4 0300 	movt	r3, #16384	; 0x4000
     fde:	4298      	cmp	r0, r3
     fe0:	4604      	mov	r4, r0
     fe2:	460d      	mov	r5, r1
     fe4:	d015      	beq.n	1012 <UART_TxCmd+0x3e>
     fe6:	2000      	movs	r0, #0
     fe8:	f2c4 0001 	movt	r0, #16385	; 0x4001
     fec:	4284      	cmp	r4, r0
     fee:	d010      	beq.n	1012 <UART_TxCmd+0x3e>
     ff0:	f44f 4100 	mov.w	r1, #32768	; 0x8000
     ff4:	f2c4 0109 	movt	r1, #16393	; 0x4009
     ff8:	428c      	cmp	r4, r1
     ffa:	d00a      	beq.n	1012 <UART_TxCmd+0x3e>
     ffc:	f44f 4240 	mov.w	r2, #49152	; 0xc000
    1000:	f2c4 0209 	movt	r2, #16393	; 0x4009
    1004:	4294      	cmp	r4, r2
    1006:	d004      	beq.n	1012 <UART_TxCmd+0x3e>
    1008:	480d      	ldr	r0, [pc, #52]	; (1040 <UART_TxCmd+0x6c>)
    100a:	f240 31df 	movw	r1, #991	; 0x3df
    100e:	f000 fe9d 	bl	1d4c <check_failed>
    1012:	2d01      	cmp	r5, #1
    1014:	d90b      	bls.n	102e <UART_TxCmd+0x5a>
    1016:	480a      	ldr	r0, [pc, #40]	; (1040 <UART_TxCmd+0x6c>)
    1018:	f44f 7178 	mov.w	r1, #992	; 0x3e0
    101c:	f000 fe96 	bl	1d4c <check_failed>
    1020:	f04f 0100 	mov.w	r1, #0
    1024:	f894 3030 	ldrb.w	r3, [r4, #48]	; 0x30
    1028:	f884 1030 	strb.w	r1, [r4, #48]	; 0x30
    102c:	bd38      	pop	{r3, r4, r5, pc}
    102e:	d1f7      	bne.n	1020 <UART_TxCmd+0x4c>
    1030:	f894 3030 	ldrb.w	r3, [r4, #48]	; 0x30
    1034:	f043 0c80 	orr.w	ip, r3, #128	; 0x80
    1038:	f884 c030 	strb.w	ip, [r4, #48]	; 0x30
    103c:	bd38      	pop	{r3, r4, r5, pc}
    103e:	bf00      	nop
    1040:	0000364c 	.word	0x0000364c

00001044 <i2s_GetChannel>:
    1044:	b538      	push	{r3, r4, r5, lr}
    1046:	f44f 4300 	mov.w	r3, #32768	; 0x8000
    104a:	f2c4 030a 	movt	r3, #16394	; 0x400a
    104e:	4298      	cmp	r0, r3
    1050:	4604      	mov	r4, r0
    1052:	460d      	mov	r5, r1
    1054:	d003      	beq.n	105e <i2s_GetChannel+0x1a>
    1056:	4809      	ldr	r0, [pc, #36]	; (107c <i2s_GetChannel+0x38>)
    1058:	2158      	movs	r1, #88	; 0x58
    105a:	f000 fe77 	bl	1d4c <check_failed>
    105e:	2d01      	cmp	r5, #1
    1060:	d906      	bls.n	1070 <i2s_GetChannel+0x2c>
    1062:	4806      	ldr	r0, [pc, #24]	; (107c <i2s_GetChannel+0x38>)
    1064:	2159      	movs	r1, #89	; 0x59
    1066:	f000 fe71 	bl	1d4c <check_failed>
    106a:	6863      	ldr	r3, [r4, #4]
    106c:	2002      	movs	r0, #2
    106e:	bd38      	pop	{r3, r4, r5, pc}
    1070:	2d00      	cmp	r5, #0
    1072:	d1fa      	bne.n	106a <i2s_GetChannel+0x26>
    1074:	6823      	ldr	r3, [r4, #0]
    1076:	2002      	movs	r0, #2
    1078:	bd38      	pop	{r3, r4, r5, pc}
    107a:	bf00      	nop
    107c:	000036ac 	.word	0x000036ac

00001080 <i2s_GetWordWidth>:
    1080:	b538      	push	{r3, r4, r5, lr}
    1082:	f44f 4300 	mov.w	r3, #32768	; 0x8000
    1086:	f2c4 030a 	movt	r3, #16394	; 0x400a
    108a:	4298      	cmp	r0, r3
    108c:	4604      	mov	r4, r0
    108e:	460d      	mov	r5, r1
    1090:	d003      	beq.n	109a <i2s_GetWordWidth+0x1a>
    1092:	480f      	ldr	r0, [pc, #60]	; (10d0 <i2s_GetWordWidth+0x50>)
    1094:	213b      	movs	r1, #59	; 0x3b
    1096:	f000 fe59 	bl	1d4c <check_failed>
    109a:	2d01      	cmp	r5, #1
    109c:	d90c      	bls.n	10b8 <i2s_GetWordWidth+0x38>
    109e:	480c      	ldr	r0, [pc, #48]	; (10d0 <i2s_GetWordWidth+0x50>)
    10a0:	213c      	movs	r1, #60	; 0x3c
    10a2:	f000 fe53 	bl	1d4c <check_failed>
    10a6:	6863      	ldr	r3, [r4, #4]
    10a8:	f003 0303 	and.w	r3, r3, #3
    10ac:	2b01      	cmp	r3, #1
    10ae:	bf9a      	itte	ls
    10b0:	4a08      	ldrls	r2, [pc, #32]	; (10d4 <i2s_GetWordWidth+0x54>)
    10b2:	5cd0      	ldrbls	r0, [r2, r3]
    10b4:	2020      	movhi	r0, #32
    10b6:	bd38      	pop	{r3, r4, r5, pc}
    10b8:	2d00      	cmp	r5, #0
    10ba:	d1f4      	bne.n	10a6 <i2s_GetWordWidth+0x26>
    10bc:	6821      	ldr	r1, [r4, #0]
    10be:	f001 0303 	and.w	r3, r1, #3
    10c2:	2b01      	cmp	r3, #1
    10c4:	bf9a      	itte	ls
    10c6:	4a03      	ldrls	r2, [pc, #12]	; (10d4 <i2s_GetWordWidth+0x54>)
    10c8:	5cd0      	ldrbls	r0, [r2, r3]
    10ca:	2020      	movhi	r0, #32
    10cc:	bd38      	pop	{r3, r4, r5, pc}
    10ce:	bf00      	nop
    10d0:	000036ac 	.word	0x000036ac
    10d4:	000036a8 	.word	0x000036a8

000010d8 <I2S_Init>:
    10d8:	b508      	push	{r3, lr}
    10da:	f44f 4300 	mov.w	r3, #32768	; 0x8000
    10de:	f2c4 030a 	movt	r3, #16394	; 0x400a
    10e2:	4298      	cmp	r0, r3
    10e4:	d003      	beq.n	10ee <I2S_Init+0x16>
    10e6:	4808      	ldr	r0, [pc, #32]	; (1108 <I2S_Init+0x30>)
    10e8:	2173      	movs	r1, #115	; 0x73
    10ea:	f000 fe2f 	bl	1d4c <check_failed>
    10ee:	f04f 6000 	mov.w	r0, #134217728	; 0x8000000
    10f2:	2101      	movs	r1, #1
    10f4:	f7ff f80a 	bl	10c <CLKPWR_ConfigPPWR>
    10f8:	f44f 4000 	mov.w	r0, #32768	; 0x8000
    10fc:	f2c4 000a 	movt	r0, #16394	; 0x400a
    1100:	2200      	movs	r2, #0
    1102:	6002      	str	r2, [r0, #0]
    1104:	6042      	str	r2, [r0, #4]
    1106:	bd08      	pop	{r3, pc}
    1108:	000036ac 	.word	0x000036ac

0000110c <I2S_Config>:
    110c:	b538      	push	{r3, r4, r5, lr}
    110e:	f44f 4300 	mov.w	r3, #32768	; 0x8000
    1112:	f2c4 030a 	movt	r3, #16394	; 0x400a
    1116:	4298      	cmp	r0, r3
    1118:	460c      	mov	r4, r1
    111a:	4615      	mov	r5, r2
    111c:	d003      	beq.n	1126 <I2S_Config+0x1a>
    111e:	4827      	ldr	r0, [pc, #156]	; (11bc <I2S_Config+0xb0>)
    1120:	218b      	movs	r1, #139	; 0x8b
    1122:	f000 fe13 	bl	1d4c <check_failed>
    1126:	782b      	ldrb	r3, [r5, #0]
    1128:	2b01      	cmp	r3, #1
    112a:	d905      	bls.n	1138 <I2S_Config+0x2c>
    112c:	2b03      	cmp	r3, #3
    112e:	d003      	beq.n	1138 <I2S_Config+0x2c>
    1130:	4822      	ldr	r0, [pc, #136]	; (11bc <I2S_Config+0xb0>)
    1132:	218d      	movs	r1, #141	; 0x8d
    1134:	f000 fe0a 	bl	1d4c <check_failed>
    1138:	7868      	ldrb	r0, [r5, #1]
    113a:	2801      	cmp	r0, #1
    113c:	d903      	bls.n	1146 <I2S_Config+0x3a>
    113e:	481f      	ldr	r0, [pc, #124]	; (11bc <I2S_Config+0xb0>)
    1140:	218e      	movs	r1, #142	; 0x8e
    1142:	f000 fe03 	bl	1d4c <check_failed>
    1146:	78a9      	ldrb	r1, [r5, #2]
    1148:	2901      	cmp	r1, #1
    114a:	d903      	bls.n	1154 <I2S_Config+0x48>
    114c:	481b      	ldr	r0, [pc, #108]	; (11bc <I2S_Config+0xb0>)
    114e:	218f      	movs	r1, #143	; 0x8f
    1150:	f000 fdfc 	bl	1d4c <check_failed>
    1154:	78ea      	ldrb	r2, [r5, #3]
    1156:	2a01      	cmp	r2, #1
    1158:	d903      	bls.n	1162 <I2S_Config+0x56>
    115a:	4818      	ldr	r0, [pc, #96]	; (11bc <I2S_Config+0xb0>)
    115c:	2190      	movs	r1, #144	; 0x90
    115e:	f000 fdf5 	bl	1d4c <check_failed>
    1162:	f895 c004 	ldrb.w	ip, [r5, #4]
    1166:	f1bc 0f01 	cmp.w	ip, #1
    116a:	d903      	bls.n	1174 <I2S_Config+0x68>
    116c:	4813      	ldr	r0, [pc, #76]	; (11bc <I2S_Config+0xb0>)
    116e:	2191      	movs	r1, #145	; 0x91
    1170:	f000 fdec 	bl	1d4c <check_failed>
    1174:	796b      	ldrb	r3, [r5, #5]
    1176:	2b01      	cmp	r3, #1
    1178:	d903      	bls.n	1182 <I2S_Config+0x76>
    117a:	4810      	ldr	r0, [pc, #64]	; (11bc <I2S_Config+0xb0>)
    117c:	2192      	movs	r1, #146	; 0x92
    117e:	f000 fde5 	bl	1d4c <check_failed>
    1182:	78ea      	ldrb	r2, [r5, #3]
    1184:	7929      	ldrb	r1, [r5, #4]
    1186:	782b      	ldrb	r3, [r5, #0]
    1188:	0110      	lsls	r0, r2, #4
    118a:	ea40 1241 	orr.w	r2, r0, r1, lsl #5
    118e:	78a8      	ldrb	r0, [r5, #2]
    1190:	ea42 0c03 	orr.w	ip, r2, r3
    1194:	7869      	ldrb	r1, [r5, #1]
    1196:	ea4c 00c0 	orr.w	r0, ip, r0, lsl #3
    119a:	025b      	lsls	r3, r3, #9
    119c:	ea40 0281 	orr.w	r2, r0, r1, lsl #2
    11a0:	f503 7ce0 	add.w	ip, r3, #448	; 0x1c0
    11a4:	f44f 4000 	mov.w	r0, #32768	; 0x8000
    11a8:	ea42 010c 	orr.w	r1, r2, ip
    11ac:	f2c4 000a 	movt	r0, #16394	; 0x400a
    11b0:	2c01      	cmp	r4, #1
    11b2:	bf0c      	ite	eq
    11b4:	6041      	streq	r1, [r0, #4]
    11b6:	6001      	strne	r1, [r0, #0]
    11b8:	bd38      	pop	{r3, r4, r5, pc}
    11ba:	bf00      	nop
    11bc:	000036ac 	.word	0x000036ac

000011c0 <I2S_Start>:
    11c0:	6803      	ldr	r3, [r0, #0]
    11c2:	f023 0210 	bic.w	r2, r3, #16
    11c6:	6002      	str	r2, [r0, #0]
    11c8:	6841      	ldr	r1, [r0, #4]
    11ca:	f021 0310 	bic.w	r3, r1, #16
    11ce:	6043      	str	r3, [r0, #4]
    11d0:	6802      	ldr	r2, [r0, #0]
    11d2:	f022 0108 	bic.w	r1, r2, #8
    11d6:	6001      	str	r1, [r0, #0]
    11d8:	6843      	ldr	r3, [r0, #4]
    11da:	f023 0208 	bic.w	r2, r3, #8
    11de:	6042      	str	r2, [r0, #4]
    11e0:	6801      	ldr	r1, [r0, #0]
    11e2:	f421 4300 	bic.w	r3, r1, #32768	; 0x8000
    11e6:	6003      	str	r3, [r0, #0]
    11e8:	4770      	bx	lr
    11ea:	bf00      	nop

000011ec <I2S_Stop>:
    11ec:	b538      	push	{r3, r4, r5, lr}
    11ee:	f44f 4300 	mov.w	r3, #32768	; 0x8000
    11f2:	f2c4 030a 	movt	r3, #16394	; 0x400a
    11f6:	4298      	cmp	r0, r3
    11f8:	4604      	mov	r4, r0
    11fa:	460d      	mov	r5, r1
    11fc:	d004      	beq.n	1208 <I2S_Stop+0x1c>
    11fe:	4812      	ldr	r0, [pc, #72]	; (1248 <I2S_Stop+0x5c>)
    1200:	f240 111f 	movw	r1, #287	; 0x11f
    1204:	f000 fda2 	bl	1d4c <check_failed>
    1208:	2d01      	cmp	r5, #1
    120a:	d90d      	bls.n	1228 <I2S_Stop+0x3c>
    120c:	480e      	ldr	r0, [pc, #56]	; (1248 <I2S_Stop+0x5c>)
    120e:	f44f 7190 	mov.w	r1, #288	; 0x120
    1212:	f000 fd9b 	bl	1d4c <check_failed>
    1216:	6861      	ldr	r1, [r4, #4]
    1218:	f041 0008 	orr.w	r0, r1, #8
    121c:	6060      	str	r0, [r4, #4]
    121e:	6863      	ldr	r3, [r4, #4]
    1220:	f043 0210 	orr.w	r2, r3, #16
    1224:	6062      	str	r2, [r4, #4]
    1226:	bd38      	pop	{r3, r4, r5, pc}
    1228:	2d00      	cmp	r5, #0
    122a:	d1f4      	bne.n	1216 <I2S_Stop+0x2a>
    122c:	6821      	ldr	r1, [r4, #0]
    122e:	f421 4000 	bic.w	r0, r1, #32768	; 0x8000
    1232:	6020      	str	r0, [r4, #0]
    1234:	6823      	ldr	r3, [r4, #0]
    1236:	f043 0208 	orr.w	r2, r3, #8
    123a:	6022      	str	r2, [r4, #0]
    123c:	6821      	ldr	r1, [r4, #0]
    123e:	f041 0010 	orr.w	r0, r1, #16
    1242:	6020      	str	r0, [r4, #0]
    1244:	bd38      	pop	{r3, r4, r5, pc}
    1246:	bf00      	nop
    1248:	000036ac 	.word	0x000036ac

0000124c <I2S_FreqConfig>:
    124c:	f44f 4300 	mov.w	r3, #32768	; 0x8000
    1250:	f2c4 030a 	movt	r3, #16394	; 0x400a
    1254:	4298      	cmp	r0, r3
    1256:	e92d 47f0 	stmdb	sp!, {r4, r5, r6, r7, r8, r9, sl, lr}
    125a:	4605      	mov	r5, r0
    125c:	4689      	mov	r9, r1
    125e:	4616      	mov	r6, r2
    1260:	d004      	beq.n	126c <I2S_FreqConfig+0x20>
    1262:	4858      	ldr	r0, [pc, #352]	; (13c4 <I2S_FreqConfig+0x178>)
    1264:	f240 1149 	movw	r1, #329	; 0x149
    1268:	f000 fd70 	bl	1d4c <check_failed>
    126c:	f44f 5062 	mov.w	r0, #14464	; 0x3880
    1270:	f5a9 527a 	sub.w	r2, r9, #16000	; 0x3e80
    1274:	f2c0 0001 	movt	r0, #1
    1278:	4282      	cmp	r2, r0
    127a:	f200 809d 	bhi.w	13b8 <I2S_FreqConfig+0x16c>
    127e:	2e01      	cmp	r6, #1
    1280:	f240 8081 	bls.w	1386 <I2S_FreqConfig+0x13a>
    1284:	484f      	ldr	r0, [pc, #316]	; (13c4 <I2S_FreqConfig+0x178>)
    1286:	f240 114b 	movw	r1, #331	; 0x14b
    128a:	f000 fd5f 	bl	1d4c <check_failed>
    128e:	2036      	movs	r0, #54	; 0x36
    1290:	f7fe ff1c 	bl	cc <CLKPWR_GetPCLK>
    1294:	4680      	mov	r8, r0
    1296:	2101      	movs	r1, #1
    1298:	4628      	mov	r0, r5
    129a:	f7ff fed3 	bl	1044 <i2s_GetChannel>
    129e:	2101      	movs	r1, #1
    12a0:	4607      	mov	r7, r0
    12a2:	4628      	mov	r0, r5
    12a4:	f7ff feec 	bl	1080 <i2s_GetWordWidth>
    12a8:	fb07 f200 	mul.w	r2, r7, r0
    12ac:	1e53      	subs	r3, r2, #1
    12ae:	b2db      	uxtb	r3, r3
    12b0:	62eb      	str	r3, [r5, #44]	; 0x2c
    12b2:	ea4f 0249 	mov.w	r2, r9, lsl #1
    12b6:	fb03 2702 	mla	r7, r3, r2, r2
    12ba:	2300      	movs	r3, #0
    12bc:	0c39      	lsrs	r1, r7, #16
    12be:	0438      	lsls	r0, r7, #16
    12c0:	4642      	mov	r2, r8
    12c2:	f000 fe1f 	bl	1f04 <__aeabi_uldivmod>
    12c6:	ebc0 2100 	rsb	r1, r0, r0, lsl #8
    12ca:	fa1f fc81 	uxth.w	ip, r1
    12ce:	4241      	negs	r1, r0
    12d0:	f1cc 0000 	rsb	r0, ip, #0
    12d4:	b28b      	uxth	r3, r1
    12d6:	fa1f f980 	uxth.w	r9, r0
    12da:	21ff      	movs	r1, #255	; 0xff
    12dc:	f64f 70ff 	movw	r0, #65535	; 0xffff
    12e0:	e034      	b.n	134c <I2S_FreqConfig+0x100>
    12e2:	f1bc 0f00 	cmp.w	ip, #0
    12e6:	d040      	beq.n	136a <I2S_FreqConfig+0x11e>
    12e8:	4662      	mov	r2, ip
    12ea:	449c      	add	ip, r3
    12ec:	4282      	cmp	r2, r0
    12ee:	fa1f fc8c 	uxth.w	ip, ip
    12f2:	bf3c      	itt	cc
    12f4:	b2cc      	uxtbcc	r4, r1
    12f6:	4610      	movcc	r0, r2
    12f8:	ebc3 0909 	rsb	r9, r3, r9
    12fc:	1e4a      	subs	r2, r1, #1
    12fe:	f5bc 4f00 	cmp.w	ip, #32768	; 0x8000
    1302:	4611      	mov	r1, r2
    1304:	fa1f f989 	uxth.w	r9, r9
    1308:	d925      	bls.n	1356 <I2S_FreqConfig+0x10a>
    130a:	4649      	mov	r1, r9
    130c:	4281      	cmp	r1, r0
    130e:	bf38      	it	cc
    1310:	4608      	movcc	r0, r1
    1312:	eb0c 0103 	add.w	r1, ip, r3
    1316:	fa1f fc81 	uxth.w	ip, r1
    131a:	bf38      	it	cc
    131c:	b2d4      	uxtbcc	r4, r2
    131e:	ebc3 0e09 	rsb	lr, r3, r9
    1322:	1e51      	subs	r1, r2, #1
    1324:	f5bc 4f00 	cmp.w	ip, #32768	; 0x8000
    1328:	fa1f f98e 	uxth.w	r9, lr
    132c:	d918      	bls.n	1360 <I2S_FreqConfig+0x114>
    132e:	46ca      	mov	sl, r9
    1330:	4582      	cmp	sl, r0
    1332:	bf38      	it	cc
    1334:	b2cc      	uxtbcc	r4, r1
    1336:	ebc3 0109 	rsb	r1, r3, r9
    133a:	bf38      	it	cc
    133c:	4650      	movcc	r0, sl
    133e:	449c      	add	ip, r3
    1340:	fa1f f981 	uxth.w	r9, r1
    1344:	1e91      	subs	r1, r2, #2
    1346:	fa1f fc8c 	uxth.w	ip, ip
    134a:	d00f      	beq.n	136c <I2S_FreqConfig+0x120>
    134c:	f5bc 4f00 	cmp.w	ip, #32768	; 0x8000
    1350:	d9c7      	bls.n	12e2 <I2S_FreqConfig+0x96>
    1352:	464a      	mov	r2, r9
    1354:	e7c9      	b.n	12ea <I2S_FreqConfig+0x9e>
    1356:	f1bc 0f00 	cmp.w	ip, #0
    135a:	d006      	beq.n	136a <I2S_FreqConfig+0x11e>
    135c:	4661      	mov	r1, ip
    135e:	e7d5      	b.n	130c <I2S_FreqConfig+0xc0>
    1360:	f1bc 0f00 	cmp.w	ip, #0
    1364:	d001      	beq.n	136a <I2S_FreqConfig+0x11e>
    1366:	46e2      	mov	sl, ip
    1368:	e7e2      	b.n	1330 <I2S_FreqConfig+0xe4>
    136a:	b2cc      	uxtb	r4, r1
    136c:	fb07 f704 	mul.w	r7, r7, r4
    1370:	fbb7 f3f8 	udiv	r3, r7, r8
    1374:	fa5f f883 	uxtb.w	r8, r3
    1378:	ea44 2408 	orr.w	r4, r4, r8, lsl #8
    137c:	b1c6      	cbz	r6, 13b0 <I2S_FreqConfig+0x164>
    137e:	626c      	str	r4, [r5, #36]	; 0x24
    1380:	2001      	movs	r0, #1
    1382:	e8bd 87f0 	ldmia.w	sp!, {r4, r5, r6, r7, r8, r9, sl, pc}
    1386:	2036      	movs	r0, #54	; 0x36
    1388:	f7fe fea0 	bl	cc <CLKPWR_GetPCLK>
    138c:	4680      	mov	r8, r0
    138e:	2e00      	cmp	r6, #0
    1390:	d181      	bne.n	1296 <I2S_FreqConfig+0x4a>
    1392:	4631      	mov	r1, r6
    1394:	4628      	mov	r0, r5
    1396:	f7ff fe55 	bl	1044 <i2s_GetChannel>
    139a:	4631      	mov	r1, r6
    139c:	4607      	mov	r7, r0
    139e:	4628      	mov	r0, r5
    13a0:	f7ff fe6e 	bl	1080 <i2s_GetWordWidth>
    13a4:	fb07 f700 	mul.w	r7, r7, r0
    13a8:	1e79      	subs	r1, r7, #1
    13aa:	b2cb      	uxtb	r3, r1
    13ac:	62ab      	str	r3, [r5, #40]	; 0x28
    13ae:	e780      	b.n	12b2 <I2S_FreqConfig+0x66>
    13b0:	622c      	str	r4, [r5, #32]
    13b2:	2001      	movs	r0, #1
    13b4:	e8bd 87f0 	ldmia.w	sp!, {r4, r5, r6, r7, r8, r9, sl, pc}
    13b8:	4802      	ldr	r0, [pc, #8]	; (13c4 <I2S_FreqConfig+0x178>)
    13ba:	f44f 71a5 	mov.w	r1, #330	; 0x14a
    13be:	f000 fcc5 	bl	1d4c <check_failed>
    13c2:	e75c      	b.n	127e <I2S_FreqConfig+0x32>
    13c4:	000036ac 	.word	0x000036ac

000013c8 <I2S_ModeConfig>:
    13c8:	f44f 4300 	mov.w	r3, #32768	; 0x8000
    13cc:	f2c4 030a 	movt	r3, #16394	; 0x400a
    13d0:	4298      	cmp	r0, r3
    13d2:	b570      	push	{r4, r5, r6, lr}
    13d4:	4605      	mov	r5, r0
    13d6:	460c      	mov	r4, r1
    13d8:	4616      	mov	r6, r2
    13da:	d004      	beq.n	13e6 <I2S_ModeConfig+0x1e>
    13dc:	4833      	ldr	r0, [pc, #204]	; (14ac <I2S_ModeConfig+0xe4>)
    13de:	f240 11b1 	movw	r1, #433	; 0x1b1
    13e2:	f000 fcb3 	bl	1d4c <check_failed>
    13e6:	7823      	ldrb	r3, [r4, #0]
    13e8:	b133      	cbz	r3, 13f8 <I2S_ModeConfig+0x30>
    13ea:	2b02      	cmp	r3, #2
    13ec:	d004      	beq.n	13f8 <I2S_ModeConfig+0x30>
    13ee:	482f      	ldr	r0, [pc, #188]	; (14ac <I2S_ModeConfig+0xe4>)
    13f0:	f44f 71d9 	mov.w	r1, #434	; 0x1b2
    13f4:	f000 fcaa 	bl	1d4c <check_failed>
    13f8:	7860      	ldrb	r0, [r4, #1]
    13fa:	2801      	cmp	r0, #1
    13fc:	d904      	bls.n	1408 <I2S_ModeConfig+0x40>
    13fe:	482b      	ldr	r0, [pc, #172]	; (14ac <I2S_ModeConfig+0xe4>)
    1400:	f240 11b3 	movw	r1, #435	; 0x1b3
    1404:	f000 fca2 	bl	1d4c <check_failed>
    1408:	78a1      	ldrb	r1, [r4, #2]
    140a:	2901      	cmp	r1, #1
    140c:	d904      	bls.n	1418 <I2S_ModeConfig+0x50>
    140e:	4827      	ldr	r0, [pc, #156]	; (14ac <I2S_ModeConfig+0xe4>)
    1410:	f44f 71da 	mov.w	r1, #436	; 0x1b4
    1414:	f000 fc9a 	bl	1d4c <check_failed>
    1418:	2e01      	cmp	r6, #1
    141a:	d912      	bls.n	1442 <I2S_ModeConfig+0x7a>
    141c:	4823      	ldr	r0, [pc, #140]	; (14ac <I2S_ModeConfig+0xe4>)
    141e:	f240 11b5 	movw	r1, #437	; 0x1b5
    1422:	f000 fc93 	bl	1d4c <check_failed>
    1426:	6b6a      	ldr	r2, [r5, #52]	; 0x34
    1428:	f022 010f 	bic.w	r1, r2, #15
    142c:	6369      	str	r1, [r5, #52]	; 0x34
    142e:	7820      	ldrb	r0, [r4, #0]
    1430:	2802      	cmp	r0, #2
    1432:	d021      	beq.n	1478 <I2S_ModeConfig+0xb0>
    1434:	7861      	ldrb	r1, [r4, #1]
    1436:	2901      	cmp	r1, #1
    1438:	d025      	beq.n	1486 <I2S_ModeConfig+0xbe>
    143a:	78a0      	ldrb	r0, [r4, #2]
    143c:	2801      	cmp	r0, #1
    143e:	d016      	beq.n	146e <I2S_ModeConfig+0xa6>
    1440:	bd70      	pop	{r4, r5, r6, pc}
    1442:	2e00      	cmp	r6, #0
    1444:	d1ef      	bne.n	1426 <I2S_ModeConfig+0x5e>
    1446:	6b28      	ldr	r0, [r5, #48]	; 0x30
    1448:	f020 030f 	bic.w	r3, r0, #15
    144c:	632b      	str	r3, [r5, #48]	; 0x30
    144e:	7822      	ldrb	r2, [r4, #0]
    1450:	2a02      	cmp	r2, #2
    1452:	d025      	beq.n	14a0 <I2S_ModeConfig+0xd8>
    1454:	f894 c001 	ldrb.w	ip, [r4, #1]
    1458:	f1bc 0f01 	cmp.w	ip, #1
    145c:	d01b      	beq.n	1496 <I2S_ModeConfig+0xce>
    145e:	78a1      	ldrb	r1, [r4, #2]
    1460:	2901      	cmp	r1, #1
    1462:	d1ed      	bne.n	1440 <I2S_ModeConfig+0x78>
    1464:	6b2b      	ldr	r3, [r5, #48]	; 0x30
    1466:	f043 0208 	orr.w	r2, r3, #8
    146a:	632a      	str	r2, [r5, #48]	; 0x30
    146c:	bd70      	pop	{r4, r5, r6, pc}
    146e:	6b6a      	ldr	r2, [r5, #52]	; 0x34
    1470:	f042 0108 	orr.w	r1, r2, #8
    1474:	6369      	str	r1, [r5, #52]	; 0x34
    1476:	bd70      	pop	{r4, r5, r6, pc}
    1478:	6b68      	ldr	r0, [r5, #52]	; 0x34
    147a:	f040 0302 	orr.w	r3, r0, #2
    147e:	636b      	str	r3, [r5, #52]	; 0x34
    1480:	7861      	ldrb	r1, [r4, #1]
    1482:	2901      	cmp	r1, #1
    1484:	d1d9      	bne.n	143a <I2S_ModeConfig+0x72>
    1486:	6b6b      	ldr	r3, [r5, #52]	; 0x34
    1488:	f043 0204 	orr.w	r2, r3, #4
    148c:	636a      	str	r2, [r5, #52]	; 0x34
    148e:	78a0      	ldrb	r0, [r4, #2]
    1490:	2801      	cmp	r0, #1
    1492:	d1d5      	bne.n	1440 <I2S_ModeConfig+0x78>
    1494:	e7eb      	b.n	146e <I2S_ModeConfig+0xa6>
    1496:	6b28      	ldr	r0, [r5, #48]	; 0x30
    1498:	f040 0304 	orr.w	r3, r0, #4
    149c:	632b      	str	r3, [r5, #48]	; 0x30
    149e:	e7de      	b.n	145e <I2S_ModeConfig+0x96>
    14a0:	6b2a      	ldr	r2, [r5, #48]	; 0x30
    14a2:	f042 0102 	orr.w	r1, r2, #2
    14a6:	6329      	str	r1, [r5, #48]	; 0x30
    14a8:	e7d4      	b.n	1454 <I2S_ModeConfig+0x8c>
    14aa:	bf00      	nop
    14ac:	000036ac 	.word	0x000036ac

000014b0 <I2S_DMAConfig>:
    14b0:	b538      	push	{r3, r4, r5, lr}
    14b2:	f44f 4300 	mov.w	r3, #32768	; 0x8000
    14b6:	f2c4 030a 	movt	r3, #16394	; 0x400a
    14ba:	4298      	cmp	r0, r3
    14bc:	460c      	mov	r4, r1
    14be:	4615      	mov	r5, r2
    14c0:	d004      	beq.n	14cc <I2S_DMAConfig+0x1c>
    14c2:	481c      	ldr	r0, [pc, #112]	; (1534 <I2S_DMAConfig+0x84>)
    14c4:	f44f 71ee 	mov.w	r1, #476	; 0x1dc
    14c8:	f000 fc40 	bl	1d4c <check_failed>
    14cc:	7820      	ldrb	r0, [r4, #0]
    14ce:	2801      	cmp	r0, #1
    14d0:	d904      	bls.n	14dc <I2S_DMAConfig+0x2c>
    14d2:	4818      	ldr	r0, [pc, #96]	; (1534 <I2S_DMAConfig+0x84>)
    14d4:	f240 11dd 	movw	r1, #477	; 0x1dd
    14d8:	f000 fc38 	bl	1d4c <check_failed>
    14dc:	2d01      	cmp	r5, #1
    14de:	d916      	bls.n	150e <I2S_DMAConfig+0x5e>
    14e0:	4814      	ldr	r0, [pc, #80]	; (1534 <I2S_DMAConfig+0x84>)
    14e2:	f240 11df 	movw	r1, #479	; 0x1df
    14e6:	f000 fc31 	bl	1d4c <check_failed>
    14ea:	7821      	ldrb	r1, [r4, #0]
    14ec:	7862      	ldrb	r2, [r4, #1]
    14ee:	b131      	cbz	r1, 14fe <I2S_DMAConfig+0x4e>
    14f0:	f44f 4300 	mov.w	r3, #32768	; 0x8000
    14f4:	0410      	lsls	r0, r2, #16
    14f6:	f2c4 030a 	movt	r3, #16394	; 0x400a
    14fa:	6198      	str	r0, [r3, #24]
    14fc:	bd38      	pop	{r3, r4, r5, pc}
    14fe:	f44f 4c00 	mov.w	ip, #32768	; 0x8000
    1502:	0412      	lsls	r2, r2, #16
    1504:	f2c4 0c0a 	movt	ip, #16394	; 0x400a
    1508:	f8cc 2014 	str.w	r2, [ip, #20]
    150c:	bd38      	pop	{r3, r4, r5, pc}
    150e:	d1ec      	bne.n	14ea <I2S_DMAConfig+0x3a>
    1510:	7821      	ldrb	r1, [r4, #0]
    1512:	7862      	ldrb	r2, [r4, #1]
    1514:	b939      	cbnz	r1, 1526 <I2S_DMAConfig+0x76>
    1516:	f44f 4c00 	mov.w	ip, #32768	; 0x8000
    151a:	0212      	lsls	r2, r2, #8
    151c:	f2c4 0c0a 	movt	ip, #16394	; 0x400a
    1520:	f8cc 2014 	str.w	r2, [ip, #20]
    1524:	bd38      	pop	{r3, r4, r5, pc}
    1526:	f44f 4300 	mov.w	r3, #32768	; 0x8000
    152a:	0210      	lsls	r0, r2, #8
    152c:	f2c4 030a 	movt	r3, #16394	; 0x400a
    1530:	6198      	str	r0, [r3, #24]
    1532:	bd38      	pop	{r3, r4, r5, pc}
    1534:	000036ac 	.word	0x000036ac

00001538 <I2S_DMACmd>:
    1538:	e92d 41f0 	stmdb	sp!, {r4, r5, r6, r7, r8, lr}
    153c:	f44f 4600 	mov.w	r6, #32768	; 0x8000
    1540:	f2c4 060a 	movt	r6, #16394	; 0x400a
    1544:	42b0      	cmp	r0, r6
    1546:	4604      	mov	r4, r0
    1548:	460d      	mov	r5, r1
    154a:	4617      	mov	r7, r2
    154c:	4698      	mov	r8, r3
    154e:	d004      	beq.n	155a <I2S_DMACmd+0x22>
    1550:	4824      	ldr	r0, [pc, #144]	; (15e4 <I2S_DMACmd+0xac>)
    1552:	f240 2101 	movw	r1, #513	; 0x201
    1556:	f000 fbf9 	bl	1d4c <check_failed>
    155a:	f1b8 0f01 	cmp.w	r8, #1
    155e:	d904      	bls.n	156a <I2S_DMACmd+0x32>
    1560:	4820      	ldr	r0, [pc, #128]	; (15e4 <I2S_DMACmd+0xac>)
    1562:	f240 2102 	movw	r1, #514	; 0x202
    1566:	f000 fbf1 	bl	1d4c <check_failed>
    156a:	2d01      	cmp	r5, #1
    156c:	d904      	bls.n	1578 <I2S_DMACmd+0x40>
    156e:	481d      	ldr	r0, [pc, #116]	; (15e4 <I2S_DMACmd+0xac>)
    1570:	f240 2103 	movw	r1, #515	; 0x203
    1574:	f000 fbea 	bl	1d4c <check_failed>
    1578:	2f01      	cmp	r7, #1
    157a:	d91b      	bls.n	15b4 <I2S_DMACmd+0x7c>
    157c:	4819      	ldr	r0, [pc, #100]	; (15e4 <I2S_DMACmd+0xac>)
    157e:	f44f 7101 	mov.w	r1, #516	; 0x204
    1582:	f000 fbe3 	bl	1d4c <check_failed>
    1586:	b955      	cbnz	r5, 159e <I2S_DMACmd+0x66>
    1588:	6961      	ldr	r1, [r4, #20]
    158a:	f1b8 0f01 	cmp.w	r8, #1
    158e:	bf0c      	ite	eq
    1590:	f041 0102 	orreq.w	r1, r1, #2
    1594:	f021 0102 	bicne.w	r1, r1, #2
    1598:	6161      	str	r1, [r4, #20]
    159a:	e8bd 81f0 	ldmia.w	sp!, {r4, r5, r6, r7, r8, pc}
    159e:	69a2      	ldr	r2, [r4, #24]
    15a0:	f1b8 0f01 	cmp.w	r8, #1
    15a4:	bf0c      	ite	eq
    15a6:	f042 0202 	orreq.w	r2, r2, #2
    15aa:	f022 0202 	bicne.w	r2, r2, #2
    15ae:	61a2      	str	r2, [r4, #24]
    15b0:	e8bd 81f0 	ldmia.w	sp!, {r4, r5, r6, r7, r8, pc}
    15b4:	d1e7      	bne.n	1586 <I2S_DMACmd+0x4e>
    15b6:	b955      	cbnz	r5, 15ce <I2S_DMACmd+0x96>
    15b8:	6963      	ldr	r3, [r4, #20]
    15ba:	f1b8 0f01 	cmp.w	r8, #1
    15be:	bf0c      	ite	eq
    15c0:	f043 0301 	orreq.w	r3, r3, #1
    15c4:	f023 0301 	bicne.w	r3, r3, #1
    15c8:	6163      	str	r3, [r4, #20]
    15ca:	e8bd 81f0 	ldmia.w	sp!, {r4, r5, r6, r7, r8, pc}
    15ce:	69a0      	ldr	r0, [r4, #24]
    15d0:	f1b8 0f01 	cmp.w	r8, #1
    15d4:	bf0c      	ite	eq
    15d6:	f040 0001 	orreq.w	r0, r0, #1
    15da:	f020 0001 	bicne.w	r0, r0, #1
    15de:	61a0      	str	r0, [r4, #24]
    15e0:	e8bd 81f0 	ldmia.w	sp!, {r4, r5, r6, r7, r8, pc}
    15e4:	000036ac 	.word	0x000036ac

000015e8 <GPDMA_Init>:
    15e8:	e92d 43f8 	stmdb	sp!, {r3, r4, r5, r6, r7, r8, r9, lr}
    15ec:	f04f 5000 	mov.w	r0, #536870912	; 0x20000000
    15f0:	2101      	movs	r1, #1
    15f2:	f7fe fd8b 	bl	10c <CLKPWR_ConfigPPWR>
    15f6:	f44f 4982 	mov.w	r9, #16640	; 0x4100
    15fa:	f244 1820 	movw	r8, #16672	; 0x4120
    15fe:	f244 1c40 	movw	ip, #16704	; 0x4140
    1602:	f244 1760 	movw	r7, #16736	; 0x4160
    1606:	f44f 4683 	mov.w	r6, #16768	; 0x4180
    160a:	f244 15a0 	movw	r5, #16800	; 0x41a0
    160e:	f244 14c0 	movw	r4, #16832	; 0x41c0
    1612:	f244 10e0 	movw	r0, #16864	; 0x41e0
    1616:	f44f 4280 	mov.w	r2, #16384	; 0x4000
    161a:	2300      	movs	r3, #0
    161c:	f2c5 0200 	movt	r2, #20480	; 0x5000
    1620:	21ff      	movs	r1, #255	; 0xff
    1622:	f2c5 0900 	movt	r9, #20480	; 0x5000
    1626:	f2c5 0800 	movt	r8, #20480	; 0x5000
    162a:	f2c5 0c00 	movt	ip, #20480	; 0x5000
    162e:	f2c5 0700 	movt	r7, #20480	; 0x5000
    1632:	f2c5 0600 	movt	r6, #20480	; 0x5000
    1636:	f2c5 0500 	movt	r5, #20480	; 0x5000
    163a:	f2c5 0400 	movt	r4, #20480	; 0x5000
    163e:	f2c5 0000 	movt	r0, #20480	; 0x5000
    1642:	f8c9 3010 	str.w	r3, [r9, #16]
    1646:	f8c8 3010 	str.w	r3, [r8, #16]
    164a:	f8cc 3010 	str.w	r3, [ip, #16]
    164e:	613b      	str	r3, [r7, #16]
    1650:	6133      	str	r3, [r6, #16]
    1652:	612b      	str	r3, [r5, #16]
    1654:	6123      	str	r3, [r4, #16]
    1656:	6103      	str	r3, [r0, #16]
    1658:	6091      	str	r1, [r2, #8]
    165a:	6111      	str	r1, [r2, #16]
    165c:	e8bd 83f8 	ldmia.w	sp!, {r3, r4, r5, r6, r7, r8, r9, pc}

00001660 <GPDMA_Setup>:
    1660:	e92d 03f0 	stmdb	sp!, {r4, r5, r6, r7, r8, r9}
    1664:	6804      	ldr	r4, [r0, #0]
    1666:	2201      	movs	r2, #1
    1668:	fa02 f204 	lsl.w	r2, r2, r4
    166c:	f44f 4380 	mov.w	r3, #16384	; 0x4000
    1670:	f2c5 0300 	movt	r3, #20480	; 0x5000
    1674:	69d9      	ldr	r1, [r3, #28]
    1676:	b2c9      	uxtb	r1, r1
    1678:	4011      	ands	r1, r2
    167a:	d112      	bne.n	16a2 <GPDMA_Setup+0x42>
    167c:	b2d5      	uxtb	r5, r2
    167e:	4a7a      	ldr	r2, [pc, #488]	; (1868 <GPDMA_Setup+0x208>)
    1680:	f852 2024 	ldr.w	r2, [r2, r4, lsl #2]
    1684:	609d      	str	r5, [r3, #8]
    1686:	611d      	str	r5, [r3, #16]
    1688:	6a04      	ldr	r4, [r0, #32]
    168a:	6943      	ldr	r3, [r0, #20]
    168c:	60d1      	str	r1, [r2, #12]
    168e:	6111      	str	r1, [r2, #16]
    1690:	6094      	str	r4, [r2, #8]
    1692:	2b03      	cmp	r3, #3
    1694:	d805      	bhi.n	16a2 <GPDMA_Setup+0x42>
    1696:	e8df f013 	tbh	[pc, r3, lsl #1]
    169a:	0072      	.short	0x0072
    169c:	00c800a8 	.word	0x00c800a8
    16a0:	0008      	.short	0x0008
    16a2:	2000      	movs	r0, #0
    16a4:	e8bd 03f0 	ldmia.w	sp!, {r4, r5, r6, r7, r8, r9}
    16a8:	4770      	bx	lr
    16aa:	6983      	ldr	r3, [r0, #24]
    16ac:	496f      	ldr	r1, [pc, #444]	; (186c <GPDMA_Setup+0x20c>)
    16ae:	69c5      	ldr	r5, [r0, #28]
    16b0:	6844      	ldr	r4, [r0, #4]
    16b2:	18cf      	adds	r7, r1, r3
    16b4:	194e      	adds	r6, r1, r5
    16b6:	f897 9060 	ldrb.w	r9, [r7, #96]	; 0x60
    16ba:	0524      	lsls	r4, r4, #20
    16bc:	f896 c060 	ldrb.w	ip, [r6, #96]	; 0x60
    16c0:	0d24      	lsrs	r4, r4, #20
    16c2:	f897 8078 	ldrb.w	r8, [r7, #120]	; 0x78
    16c6:	f044 4400 	orr.w	r4, r4, #2147483648	; 0x80000000
    16ca:	f009 0907 	and.w	r9, r9, #7
    16ce:	ea44 3409 	orr.w	r4, r4, r9, lsl #12
    16d2:	f896 7078 	ldrb.w	r7, [r6, #120]	; 0x78
    16d6:	f00c 0c07 	and.w	ip, ip, #7
    16da:	ea44 3ccc 	orr.w	ip, r4, ip, lsl #15
    16de:	f008 0807 	and.w	r8, r8, #7
    16e2:	f851 4025 	ldr.w	r4, [r1, r5, lsl #2]
    16e6:	f851 6023 	ldr.w	r6, [r1, r3, lsl #2]
    16ea:	ea4c 4588 	orr.w	r5, ip, r8, lsl #18
    16ee:	f007 0c07 	and.w	ip, r7, #7
    16f2:	ea45 514c 	orr.w	r1, r5, ip, lsl #21
    16f6:	6016      	str	r6, [r2, #0]
    16f8:	6054      	str	r4, [r2, #4]
    16fa:	60d1      	str	r1, [r2, #12]
    16fc:	2b0f      	cmp	r3, #15
    16fe:	d954      	bls.n	17aa <GPDMA_Setup+0x14a>
    1700:	3b10      	subs	r3, #16
    1702:	2101      	movs	r1, #1
    1704:	fa01 fc03 	lsl.w	ip, r1, r3
    1708:	f24c 11c4 	movw	r1, #49604	; 0xc1c4
    170c:	f2c4 0100 	movt	r1, #16384	; 0x4000
    1710:	680c      	ldr	r4, [r1, #0]
    1712:	ea4c 0304 	orr.w	r3, ip, r4
    1716:	600b      	str	r3, [r1, #0]
    1718:	69c3      	ldr	r3, [r0, #28]
    171a:	2b0f      	cmp	r3, #15
    171c:	d956      	bls.n	17cc <GPDMA_Setup+0x16c>
    171e:	3b10      	subs	r3, #16
    1720:	2401      	movs	r4, #1
    1722:	fa04 f103 	lsl.w	r1, r4, r3
    1726:	f24c 1cc4 	movw	ip, #49604	; 0xc1c4
    172a:	f2c4 0c00 	movt	ip, #16384	; 0x4000
    172e:	f8dc 4000 	ldr.w	r4, [ip]
    1732:	ea41 0304 	orr.w	r3, r1, r4
    1736:	f8cc 3000 	str.w	r3, [ip]
    173a:	f44f 4180 	mov.w	r1, #16384	; 0x4000
    173e:	f2c5 0100 	movt	r1, #20480	; 0x5000
    1742:	2301      	movs	r3, #1
    1744:	630b      	str	r3, [r1, #48]	; 0x30
    1746:	6b0b      	ldr	r3, [r1, #48]	; 0x30
    1748:	07db      	lsls	r3, r3, #31
    174a:	d5fc      	bpl.n	1746 <GPDMA_Setup+0xe6>
    174c:	6981      	ldr	r1, [r0, #24]
    174e:	69c3      	ldr	r3, [r0, #28]
    1750:	6940      	ldr	r0, [r0, #20]
    1752:	290f      	cmp	r1, #15
    1754:	bf88      	it	hi
    1756:	3908      	subhi	r1, #8
    1758:	f000 0007 	and.w	r0, r0, #7
    175c:	2b0f      	cmp	r3, #15
    175e:	bf88      	it	hi
    1760:	3b08      	subhi	r3, #8
    1762:	f001 0c1f 	and.w	ip, r1, #31
    1766:	02c1      	lsls	r1, r0, #11
    1768:	f441 4040 	orr.w	r0, r1, #49152	; 0xc000
    176c:	ea40 014c 	orr.w	r1, r0, ip, lsl #1
    1770:	f003 0c1f 	and.w	ip, r3, #31
    1774:	ea41 108c 	orr.w	r0, r1, ip, lsl #6
    1778:	6110      	str	r0, [r2, #16]
    177a:	2001      	movs	r0, #1
    177c:	e792      	b.n	16a4 <GPDMA_Setup+0x44>
    177e:	6845      	ldr	r5, [r0, #4]
    1780:	6884      	ldr	r4, [r0, #8]
    1782:	0529      	lsls	r1, r5, #20
    1784:	0d0b      	lsrs	r3, r1, #20
    1786:	f043 450c 	orr.w	r5, r3, #2348810240	; 0x8c000000
    178a:	f004 0c07 	and.w	ip, r4, #7
    178e:	f445 3110 	orr.w	r1, r5, #147456	; 0x24000
    1792:	ea41 438c 	orr.w	r3, r1, ip, lsl #18
    1796:	ea43 514c 	orr.w	r1, r3, ip, lsl #21
    179a:	6983      	ldr	r3, [r0, #24]
    179c:	68c5      	ldr	r5, [r0, #12]
    179e:	6904      	ldr	r4, [r0, #16]
    17a0:	2b0f      	cmp	r3, #15
    17a2:	6015      	str	r5, [r2, #0]
    17a4:	6054      	str	r4, [r2, #4]
    17a6:	60d1      	str	r1, [r2, #12]
    17a8:	d8aa      	bhi.n	1700 <GPDMA_Setup+0xa0>
    17aa:	3b08      	subs	r3, #8
    17ac:	2101      	movs	r1, #1
    17ae:	fa01 f103 	lsl.w	r1, r1, r3
    17b2:	f24c 1cc4 	movw	ip, #49604	; 0xc1c4
    17b6:	f2c4 0c00 	movt	ip, #16384	; 0x4000
    17ba:	f8dc 4000 	ldr.w	r4, [ip]
    17be:	ea24 0301 	bic.w	r3, r4, r1
    17c2:	f8cc 3000 	str.w	r3, [ip]
    17c6:	69c3      	ldr	r3, [r0, #28]
    17c8:	2b0f      	cmp	r3, #15
    17ca:	d8a8      	bhi.n	171e <GPDMA_Setup+0xbe>
    17cc:	3b08      	subs	r3, #8
    17ce:	2401      	movs	r4, #1
    17d0:	fa04 f103 	lsl.w	r1, r4, r3
    17d4:	f24c 1cc4 	movw	ip, #49604	; 0xc1c4
    17d8:	f2c4 0c00 	movt	ip, #16384	; 0x4000
    17dc:	f8dc 4000 	ldr.w	r4, [ip]
    17e0:	ea24 0301 	bic.w	r3, r4, r1
    17e4:	f8cc 3000 	str.w	r3, [ip]
    17e8:	e7a7      	b.n	173a <GPDMA_Setup+0xda>
    17ea:	69c5      	ldr	r5, [r0, #28]
    17ec:	4c1f      	ldr	r4, [pc, #124]	; (186c <GPDMA_Setup+0x20c>)
    17ee:	6843      	ldr	r3, [r0, #4]
    17f0:	1961      	adds	r1, r4, r5
    17f2:	f891 6060 	ldrb.w	r6, [r1, #96]	; 0x60
    17f6:	051b      	lsls	r3, r3, #20
    17f8:	0d1b      	lsrs	r3, r3, #20
    17fa:	f006 0607 	and.w	r6, r6, #7
    17fe:	f891 1078 	ldrb.w	r1, [r1, #120]	; 0x78
    1802:	f043 4c04 	orr.w	ip, r3, #2214592512	; 0x84000000
    1806:	ea4c 3306 	orr.w	r3, ip, r6, lsl #12
    180a:	ea43 36c6 	orr.w	r6, r3, r6, lsl #15
    180e:	f001 0c07 	and.w	ip, r1, #7
    1812:	68c3      	ldr	r3, [r0, #12]
    1814:	f854 4025 	ldr.w	r4, [r4, r5, lsl #2]
    1818:	ea46 468c 	orr.w	r6, r6, ip, lsl #18
    181c:	ea46 514c 	orr.w	r1, r6, ip, lsl #21
    1820:	6013      	str	r3, [r2, #0]
    1822:	6983      	ldr	r3, [r0, #24]
    1824:	6054      	str	r4, [r2, #4]
    1826:	60d1      	str	r1, [r2, #12]
    1828:	e768      	b.n	16fc <GPDMA_Setup+0x9c>
    182a:	6983      	ldr	r3, [r0, #24]
    182c:	4d0f      	ldr	r5, [pc, #60]	; (186c <GPDMA_Setup+0x20c>)
    182e:	6841      	ldr	r1, [r0, #4]
    1830:	18ec      	adds	r4, r5, r3
    1832:	f894 6060 	ldrb.w	r6, [r4, #96]	; 0x60
    1836:	0509      	lsls	r1, r1, #20
    1838:	0d09      	lsrs	r1, r1, #20
    183a:	f006 0607 	and.w	r6, r6, #7
    183e:	f894 4078 	ldrb.w	r4, [r4, #120]	; 0x78
    1842:	f041 4c08 	orr.w	ip, r1, #2281701376	; 0x88000000
    1846:	ea4c 3106 	orr.w	r1, ip, r6, lsl #12
    184a:	ea41 36c6 	orr.w	r6, r1, r6, lsl #15
    184e:	f004 0c07 	and.w	ip, r4, #7
    1852:	6901      	ldr	r1, [r0, #16]
    1854:	f855 5023 	ldr.w	r5, [r5, r3, lsl #2]
    1858:	ea46 468c 	orr.w	r6, r6, ip, lsl #18
    185c:	ea46 544c 	orr.w	r4, r6, ip, lsl #21
    1860:	6015      	str	r5, [r2, #0]
    1862:	6051      	str	r1, [r2, #4]
    1864:	60d4      	str	r4, [r2, #12]
    1866:	e749      	b.n	16fc <GPDMA_Setup+0x9c>
    1868:	10000004 	.word	0x10000004
    186c:	00003704 	.word	0x00003704

00001870 <GPDMA_ChannelCmd>:
    1870:	4a05      	ldr	r2, [pc, #20]	; (1888 <GPDMA_ChannelCmd+0x18>)
    1872:	2901      	cmp	r1, #1
    1874:	f852 3020 	ldr.w	r3, [r2, r0, lsl #2]
    1878:	691a      	ldr	r2, [r3, #16]
    187a:	bf0c      	ite	eq
    187c:	f042 0201 	orreq.w	r2, r2, #1
    1880:	f022 0201 	bicne.w	r2, r2, #1
    1884:	611a      	str	r2, [r3, #16]
    1886:	4770      	bx	lr
    1888:	10000004 	.word	0x10000004

0000188c <GPDMA_IntGetStatus>:
    188c:	2805      	cmp	r0, #5
    188e:	b538      	push	{r3, r4, r5, lr}
    1890:	4604      	mov	r4, r0
    1892:	460d      	mov	r5, r1
    1894:	d811      	bhi.n	18ba <GPDMA_IntGetStatus+0x2e>
    1896:	2d07      	cmp	r5, #7
    1898:	d809      	bhi.n	18ae <GPDMA_IntGetStatus+0x22>
    189a:	2301      	movs	r3, #1
    189c:	fa03 f505 	lsl.w	r5, r3, r5
    18a0:	2c04      	cmp	r4, #4
    18a2:	d81c      	bhi.n	18de <GPDMA_IntGetStatus+0x52>
    18a4:	e8df f004 	tbb	[pc, r4]
    18a8:	4a3e3126 	.word	0x4a3e3126
    18ac:	0f          	.byte	0x0f
    18ad:	00          	.byte	0x00
    18ae:	4829      	ldr	r0, [pc, #164]	; (1954 <GPDMA_IntGetStatus+0xc8>)
    18b0:	f240 1185 	movw	r1, #389	; 0x185
    18b4:	f000 fa4a 	bl	1d4c <check_failed>
    18b8:	e7ef      	b.n	189a <GPDMA_IntGetStatus+0xe>
    18ba:	4826      	ldr	r0, [pc, #152]	; (1954 <GPDMA_IntGetStatus+0xc8>)
    18bc:	f44f 71c2 	mov.w	r1, #388	; 0x184
    18c0:	f000 fa44 	bl	1d4c <check_failed>
    18c4:	e7e7      	b.n	1896 <GPDMA_IntGetStatus+0xa>
    18c6:	f44f 4c80 	mov.w	ip, #16384	; 0x4000
    18ca:	f2c5 0c00 	movt	ip, #20480	; 0x5000
    18ce:	f8dc 3014 	ldr.w	r3, [ip, #20]
    18d2:	b2da      	uxtb	r2, r3
    18d4:	422a      	tst	r2, r5
    18d6:	bf0c      	ite	eq
    18d8:	2000      	moveq	r0, #0
    18da:	2001      	movne	r0, #1
    18dc:	bd38      	pop	{r3, r4, r5, pc}
    18de:	f44f 4280 	mov.w	r2, #16384	; 0x4000
    18e2:	f2c5 0200 	movt	r2, #20480	; 0x5000
    18e6:	69d1      	ldr	r1, [r2, #28]
    18e8:	b2c8      	uxtb	r0, r1
    18ea:	4228      	tst	r0, r5
    18ec:	bf0c      	ite	eq
    18ee:	2000      	moveq	r0, #0
    18f0:	2001      	movne	r0, #1
    18f2:	bd38      	pop	{r3, r4, r5, pc}
    18f4:	f44f 4280 	mov.w	r2, #16384	; 0x4000
    18f8:	f2c5 0200 	movt	r2, #20480	; 0x5000
    18fc:	6811      	ldr	r1, [r2, #0]
    18fe:	b2c8      	uxtb	r0, r1
    1900:	4228      	tst	r0, r5
    1902:	bf0c      	ite	eq
    1904:	2000      	moveq	r0, #0
    1906:	2001      	movne	r0, #1
    1908:	bd38      	pop	{r3, r4, r5, pc}
    190a:	f44f 4080 	mov.w	r0, #16384	; 0x4000
    190e:	f2c5 0000 	movt	r0, #20480	; 0x5000
    1912:	6843      	ldr	r3, [r0, #4]
    1914:	fa5f fc83 	uxtb.w	ip, r3
    1918:	ea1c 0f05 	tst.w	ip, r5
    191c:	bf0c      	ite	eq
    191e:	2000      	moveq	r0, #0
    1920:	2001      	movne	r0, #1
    1922:	bd38      	pop	{r3, r4, r5, pc}
    1924:	f44f 4c80 	mov.w	ip, #16384	; 0x4000
    1928:	f2c5 0c00 	movt	ip, #20480	; 0x5000
    192c:	f8dc 200c 	ldr.w	r2, [ip, #12]
    1930:	b2d1      	uxtb	r1, r2
    1932:	4229      	tst	r1, r5
    1934:	bf0c      	ite	eq
    1936:	2000      	moveq	r0, #0
    1938:	2001      	movne	r0, #1
    193a:	bd38      	pop	{r3, r4, r5, pc}
    193c:	f44f 4180 	mov.w	r1, #16384	; 0x4000
    1940:	f2c5 0100 	movt	r1, #20480	; 0x5000
    1944:	6988      	ldr	r0, [r1, #24]
    1946:	b2c3      	uxtb	r3, r0
    1948:	422b      	tst	r3, r5
    194a:	bf0c      	ite	eq
    194c:	2000      	moveq	r0, #0
    194e:	2001      	movne	r0, #1
    1950:	bd38      	pop	{r3, r4, r5, pc}
    1952:	bf00      	nop
    1954:	00003794 	.word	0x00003794

00001958 <GPDMA_ClearIntPending>:
    1958:	2801      	cmp	r0, #1
    195a:	b538      	push	{r3, r4, r5, lr}
    195c:	4605      	mov	r5, r0
    195e:	460c      	mov	r4, r1
    1960:	d904      	bls.n	196c <GPDMA_ClearIntPending+0x14>
    1962:	480d      	ldr	r0, [pc, #52]	; (1998 <GPDMA_ClearIntPending+0x40>)
    1964:	f44f 71d7 	mov.w	r1, #430	; 0x1ae
    1968:	f000 f9f0 	bl	1d4c <check_failed>
    196c:	2c07      	cmp	r4, #7
    196e:	d80c      	bhi.n	198a <GPDMA_ClearIntPending+0x32>
    1970:	2301      	movs	r3, #1
    1972:	fa03 f404 	lsl.w	r4, r3, r4
    1976:	f44f 4380 	mov.w	r3, #16384	; 0x4000
    197a:	b2e4      	uxtb	r4, r4
    197c:	f2c5 0300 	movt	r3, #20480	; 0x5000
    1980:	b10d      	cbz	r5, 1986 <GPDMA_ClearIntPending+0x2e>
    1982:	611c      	str	r4, [r3, #16]
    1984:	bd38      	pop	{r3, r4, r5, pc}
    1986:	609c      	str	r4, [r3, #8]
    1988:	bd38      	pop	{r3, r4, r5, pc}
    198a:	4803      	ldr	r0, [pc, #12]	; (1998 <GPDMA_ClearIntPending+0x40>)
    198c:	f240 11af 	movw	r1, #431	; 0x1af
    1990:	f000 f9dc 	bl	1d4c <check_failed>
    1994:	e7ec      	b.n	1970 <GPDMA_ClearIntPending+0x18>
    1996:	bf00      	nop
    1998:	00003794 	.word	0x00003794

0000199c <SysTick_Handler>:
    199c:	b538      	push	{r3, r4, r5, lr}
    199e:	4b18      	ldr	r3, [pc, #96]	; (1a00 <SysTick_Handler+0x64>)
    19a0:	4c18      	ldr	r4, [pc, #96]	; (1a04 <SysTick_Handler+0x68>)
    19a2:	6818      	ldr	r0, [r3, #0]
    19a4:	1c42      	adds	r2, r0, #1
    19a6:	601a      	str	r2, [r3, #0]
    19a8:	6821      	ldr	r1, [r4, #0]
    19aa:	1c48      	adds	r0, r1, #1
    19ac:	6020      	str	r0, [r4, #0]
    19ae:	6823      	ldr	r3, [r4, #0]
    19b0:	f5b3 7ffa 	cmp.w	r3, #500	; 0x1f4
    19b4:	d31d      	bcc.n	19f2 <SysTick_Handler+0x56>
    19b6:	2500      	movs	r5, #0
    19b8:	6025      	str	r5, [r4, #0]
    19ba:	6862      	ldr	r2, [r4, #4]
    19bc:	f64f 70fe 	movw	r0, #65534	; 0xfffe
    19c0:	1c51      	adds	r1, r2, #1
    19c2:	6061      	str	r1, [r4, #4]
    19c4:	6863      	ldr	r3, [r4, #4]
    19c6:	4a10      	ldr	r2, [pc, #64]	; (1a08 <SysTick_Handler+0x6c>)
    19c8:	4283      	cmp	r3, r0
    19ca:	bf88      	it	hi
    19cc:	6065      	strhi	r5, [r4, #4]
    19ce:	6861      	ldr	r1, [r4, #4]
    19d0:	4d0e      	ldr	r5, [pc, #56]	; (1a0c <SysTick_Handler+0x70>)
    19d2:	60d1      	str	r1, [r2, #12]
    19d4:	6091      	str	r1, [r2, #8]
    19d6:	6051      	str	r1, [r2, #4]
    19d8:	6011      	str	r1, [r2, #0]
    19da:	68e8      	ldr	r0, [r5, #12]
    19dc:	2101      	movs	r1, #1
    19de:	f000 f99d 	bl	1d1c <term1PutValue>
    19e2:	68a0      	ldr	r0, [r4, #8]
    19e4:	6929      	ldr	r1, [r5, #16]
    19e6:	4c07      	ldr	r4, [pc, #28]	; (1a04 <SysTick_Handler+0x68>)
    19e8:	b920      	cbnz	r0, 19f4 <SysTick_Handler+0x58>
    19ea:	f000 f8b7 	bl	1b5c <GPIO_ClearValue>
    19ee:	2001      	movs	r0, #1
    19f0:	60a0      	str	r0, [r4, #8]
    19f2:	bd38      	pop	{r3, r4, r5, pc}
    19f4:	2000      	movs	r0, #0
    19f6:	f000 f8a7 	bl	1b48 <GPIO_SetValue>
    19fa:	2300      	movs	r3, #0
    19fc:	60a3      	str	r3, [r4, #8]
    19fe:	bd38      	pop	{r3, r4, r5, pc}
    1a00:	10000048 	.word	0x10000048
    1a04:	1000003c 	.word	0x1000003c
    1a08:	1000004c 	.word	0x1000004c
    1a0c:	10000024 	.word	0x10000024

00001a10 <DMA_IRQHandler>:
    1a10:	b508      	push	{r3, lr}
    1a12:	480f      	ldr	r0, [pc, #60]	; (1a50 <DMA_IRQHandler+0x40>)
    1a14:	f000 f972 	bl	1cfc <term1PutText>
    1a18:	2000      	movs	r0, #0
    1a1a:	4601      	mov	r1, r0
    1a1c:	f7ff ff36 	bl	188c <GPDMA_IntGetStatus>
    1a20:	2801      	cmp	r0, #1
    1a22:	d000      	beq.n	1a26 <DMA_IRQHandler+0x16>
    1a24:	bd08      	pop	{r3, pc}
    1a26:	2100      	movs	r1, #0
    1a28:	f7ff ff30 	bl	188c <GPDMA_IntGetStatus>
    1a2c:	2801      	cmp	r0, #1
    1a2e:	d00a      	beq.n	1a46 <DMA_IRQHandler+0x36>
    1a30:	2002      	movs	r0, #2
    1a32:	2100      	movs	r1, #0
    1a34:	f7ff ff2a 	bl	188c <GPDMA_IntGetStatus>
    1a38:	2801      	cmp	r0, #1
    1a3a:	d1f3      	bne.n	1a24 <DMA_IRQHandler+0x14>
    1a3c:	2100      	movs	r1, #0
    1a3e:	e8bd 4008 	ldmia.w	sp!, {r3, lr}
    1a42:	f7ff bf89 	b.w	1958 <GPDMA_ClearIntPending>
    1a46:	2000      	movs	r0, #0
    1a48:	4601      	mov	r1, r0
    1a4a:	f7ff ff85 	bl	1958 <GPDMA_ClearIntPending>
    1a4e:	e7ef      	b.n	1a30 <DMA_IRQHandler+0x20>
    1a50:	000037f0 	.word	0x000037f0

00001a54 <main>:
    1a54:	e92d 41f0 	stmdb	sp!, {r4, r5, r6, r7, r8, lr}
    1a58:	b08a      	sub	sp, #40	; 0x28
    1a5a:	f7fe fbf1 	bl	240 <SystemInit>
    1a5e:	f7fe fb7b 	bl	158 <SystemCoreClockUpdate>
    1a62:	482c      	ldr	r0, [pc, #176]	; (1b14 <main+0xc0>)
    1a64:	f644 57d3 	movw	r7, #19923	; 0x4dd3
    1a68:	6805      	ldr	r5, [r0, #0]
    1a6a:	f2c1 0762 	movt	r7, #4194	; 0x1062
    1a6e:	fba7 1405 	umull	r1, r4, r7, r5
    1a72:	f24e 0c10 	movw	ip, #57360	; 0xe010
    1a76:	4d28      	ldr	r5, [pc, #160]	; (1b18 <main+0xc4>)
    1a78:	09a1      	lsrs	r1, r4, #6
    1a7a:	f44f 486d 	mov.w	r8, #60672	; 0xed00
    1a7e:	2400      	movs	r4, #0
    1a80:	f2ce 0c00 	movt	ip, #57344	; 0xe000
    1a84:	23f8      	movs	r3, #248	; 0xf8
    1a86:	1e4a      	subs	r2, r1, #1
    1a88:	f2ce 0800 	movt	r8, #57344	; 0xe000
    1a8c:	4f23      	ldr	r7, [pc, #140]	; (1b1c <main+0xc8>)
    1a8e:	2607      	movs	r6, #7
    1a90:	60ec      	str	r4, [r5, #12]
    1a92:	f44f 4000 	mov.w	r0, #32768	; 0x8000
    1a96:	60ac      	str	r4, [r5, #8]
    1a98:	2101      	movs	r1, #1
    1a9a:	606c      	str	r4, [r5, #4]
    1a9c:	602c      	str	r4, [r5, #0]
    1a9e:	f8cc 2004 	str.w	r2, [ip, #4]
    1aa2:	f888 3023 	strb.w	r3, [r8, #35]	; 0x23
    1aa6:	f8cc 4008 	str.w	r4, [ip, #8]
    1aaa:	f8cc 6000 	str.w	r6, [ip]
    1aae:	f7fe fb2d 	bl	10c <CLKPWR_ConfigPPWR>
    1ab2:	f44f 4661 	mov.w	r6, #57600	; 0xe100
    1ab6:	6939      	ldr	r1, [r7, #16]
    1ab8:	2201      	movs	r2, #1
    1aba:	4620      	mov	r0, r4
    1abc:	f000 f832 	bl	1b24 <GPIO_SetDir>
    1ac0:	f2ce 0600 	movt	r6, #57344	; 0xe000
    1ac4:	f000 f8de 	bl	1c84 <uart1Init>
    1ac8:	f04f 6880 	mov.w	r8, #67108864	; 0x4000000
    1acc:	2048      	movs	r0, #72	; 0x48
    1ace:	f8c6 8080 	str.w	r8, [r6, #128]	; 0x80
    1ad2:	f886 031a 	strb.w	r0, [r6, #794]	; 0x31a
    1ad6:	f7ff fd87 	bl	15e8 <GPDMA_Init>
    1ada:	2204      	movs	r2, #4
    1adc:	2305      	movs	r3, #5
    1ade:	2102      	movs	r1, #2
    1ae0:	a801      	add	r0, sp, #4
    1ae2:	9202      	str	r2, [sp, #8]
    1ae4:	9308      	str	r3, [sp, #32]
    1ae6:	9103      	str	r1, [sp, #12]
    1ae8:	9401      	str	r4, [sp, #4]
    1aea:	9504      	str	r5, [sp, #16]
    1aec:	9705      	str	r7, [sp, #20]
    1aee:	9406      	str	r4, [sp, #24]
    1af0:	9407      	str	r4, [sp, #28]
    1af2:	9409      	str	r4, [sp, #36]	; 0x24
    1af4:	f7ff fdb4 	bl	1660 <GPDMA_Setup>
    1af8:	4620      	mov	r0, r4
    1afa:	2101      	movs	r1, #1
    1afc:	f7ff feb8 	bl	1870 <GPDMA_ChannelCmd>
    1b00:	f64a 4044 	movw	r0, #44100	; 0xac44
    1b04:	f8c6 8000 	str.w	r8, [r6]
    1b08:	f000 f97a 	bl	1e00 <initTX>
    1b0c:	4804      	ldr	r0, [pc, #16]	; (1b20 <main+0xcc>)
    1b0e:	f000 f8f5 	bl	1cfc <term1PutText>
    1b12:	e7fe      	b.n	1b12 <main+0xbe>
    1b14:	10000000 	.word	0x10000000
    1b18:	1000004c 	.word	0x1000004c
    1b1c:	10000024 	.word	0x10000024
    1b20:	000037f8 	.word	0x000037f8

00001b24 <GPIO_SetDir>:
    1b24:	2804      	cmp	r0, #4
    1b26:	d808      	bhi.n	1b3a <GPIO_SetDir+0x16>
    1b28:	4b06      	ldr	r3, [pc, #24]	; (1b44 <GPIO_SetDir+0x20>)
    1b2a:	f853 3020 	ldr.w	r3, [r3, r0, lsl #2]
    1b2e:	b123      	cbz	r3, 1b3a <GPIO_SetDir+0x16>
    1b30:	b922      	cbnz	r2, 1b3c <GPIO_SetDir+0x18>
    1b32:	681a      	ldr	r2, [r3, #0]
    1b34:	ea22 0001 	bic.w	r0, r2, r1
    1b38:	6018      	str	r0, [r3, #0]
    1b3a:	4770      	bx	lr
    1b3c:	681a      	ldr	r2, [r3, #0]
    1b3e:	4311      	orrs	r1, r2
    1b40:	6019      	str	r1, [r3, #0]
    1b42:	4770      	bx	lr
    1b44:	00003804 	.word	0x00003804

00001b48 <GPIO_SetValue>:
    1b48:	2804      	cmp	r0, #4
    1b4a:	d804      	bhi.n	1b56 <GPIO_SetValue+0xe>
    1b4c:	4b02      	ldr	r3, [pc, #8]	; (1b58 <GPIO_SetValue+0x10>)
    1b4e:	f853 3020 	ldr.w	r3, [r3, r0, lsl #2]
    1b52:	b103      	cbz	r3, 1b56 <GPIO_SetValue+0xe>
    1b54:	6199      	str	r1, [r3, #24]
    1b56:	4770      	bx	lr
    1b58:	00003804 	.word	0x00003804

00001b5c <GPIO_ClearValue>:
    1b5c:	2804      	cmp	r0, #4
    1b5e:	d804      	bhi.n	1b6a <GPIO_ClearValue+0xe>
    1b60:	4b02      	ldr	r3, [pc, #8]	; (1b6c <GPIO_ClearValue+0x10>)
    1b62:	f853 3020 	ldr.w	r3, [r3, r0, lsl #2]
    1b66:	b103      	cbz	r3, 1b6a <GPIO_ClearValue+0xe>
    1b68:	61d9      	str	r1, [r3, #28]
    1b6a:	4770      	bx	lr
    1b6c:	00003804 	.word	0x00003804

00001b70 <Default_Reset_Handler>:
    1b70:	b570      	push	{r4, r5, r6, lr}
    1b72:	491a      	ldr	r1, [pc, #104]	; (1bdc <zero_loop+0x16>)
    1b74:	4c1a      	ldr	r4, [pc, #104]	; (1be0 <zero_loop+0x1a>)
    1b76:	42a1      	cmp	r1, r4
    1b78:	d221      	bcs.n	1bbe <Default_Reset_Handler+0x4e>
    1b7a:	481a      	ldr	r0, [pc, #104]	; (1be4 <zero_loop+0x1e>)
    1b7c:	460b      	mov	r3, r1
    1b7e:	4602      	mov	r2, r0
    1b80:	f852 6b04 	ldr.w	r6, [r2], #4
    1b84:	43cd      	mvns	r5, r1
    1b86:	f843 6b04 	str.w	r6, [r3], #4
    1b8a:	1965      	adds	r5, r4, r5
    1b8c:	42a3      	cmp	r3, r4
    1b8e:	f3c5 0580 	ubfx	r5, r5, #2, #1
    1b92:	d214      	bcs.n	1bbe <Default_Reset_Handler+0x4e>
    1b94:	b13d      	cbz	r5, 1ba6 <Default_Reset_Handler+0x36>
    1b96:	6815      	ldr	r5, [r2, #0]
    1b98:	f100 0208 	add.w	r2, r0, #8
    1b9c:	601d      	str	r5, [r3, #0]
    1b9e:	f101 0308 	add.w	r3, r1, #8
    1ba2:	42a3      	cmp	r3, r4
    1ba4:	d20b      	bcs.n	1bbe <Default_Reset_Handler+0x4e>
    1ba6:	4611      	mov	r1, r2
    1ba8:	f851 5b04 	ldr.w	r5, [r1], #4
    1bac:	4618      	mov	r0, r3
    1bae:	6852      	ldr	r2, [r2, #4]
    1bb0:	f840 5b04 	str.w	r5, [r0], #4
    1bb4:	605a      	str	r2, [r3, #4]
    1bb6:	1d03      	adds	r3, r0, #4
    1bb8:	1d0a      	adds	r2, r1, #4
    1bba:	42a3      	cmp	r3, r4
    1bbc:	d3f3      	bcc.n	1ba6 <Default_Reset_Handler+0x36>
    1bbe:	480a      	ldr	r0, [pc, #40]	; (1be8 <zero_loop+0x22>)
    1bc0:	490a      	ldr	r1, [pc, #40]	; (1bec <zero_loop+0x26>)
    1bc2:	f04f 0200 	mov.w	r2, #0

00001bc6 <zero_loop>:
    1bc6:	4288      	cmp	r0, r1
    1bc8:	bfb8      	it	lt
    1bca:	f840 2b04 	strlt.w	r2, [r0], #4
    1bce:	dbfa      	blt.n	1bc6 <zero_loop>
    1bd0:	f7fe fb36 	bl	240 <SystemInit>
    1bd4:	e8bd 4070 	ldmia.w	sp!, {r4, r5, r6, lr}
    1bd8:	f7ff bf3c 	b.w	1a54 <main>
    1bdc:	10000000 	.word	0x10000000
    1be0:	1000003c 	.word	0x1000003c
    1be4:	0000396c 	.word	0x0000396c
    1be8:	1000003c 	.word	0x1000003c
    1bec:	10000060 	.word	0x10000060

00001bf0 <ADC_IRQHandler>:
    1bf0:	e7fe      	b.n	1bf0 <ADC_IRQHandler>
    1bf2:	bf00      	nop

00001bf4 <strrev>:
    1bf4:	b5f8      	push	{r3, r4, r5, r6, r7, lr}
    1bf6:	4605      	mov	r5, r0
    1bf8:	b310      	cbz	r0, 1c40 <strrev+0x4c>
    1bfa:	7804      	ldrb	r4, [r0, #0]
    1bfc:	b304      	cbz	r4, 1c40 <strrev+0x4c>
    1bfe:	f001 fcf1 	bl	35e4 <strlen>
    1c02:	1e43      	subs	r3, r0, #1
    1c04:	18eb      	adds	r3, r5, r3
    1c06:	429d      	cmp	r5, r3
    1c08:	d21a      	bcs.n	1c40 <strrev+0x4c>
    1c0a:	1c6a      	adds	r2, r5, #1
    1c0c:	3b01      	subs	r3, #1
    1c0e:	462f      	mov	r7, r5
    1c10:	e001      	b.n	1c16 <strrev+0x22>
    1c12:	f817 4f01 	ldrb.w	r4, [r7, #1]!
    1c16:	f893 e001 	ldrb.w	lr, [r3, #1]
    1c1a:	4618      	mov	r0, r3
    1c1c:	ea84 0c0e 	eor.w	ip, r4, lr
    1c20:	f802 cc01 	strb.w	ip, [r2, #-1]
    1c24:	785e      	ldrb	r6, [r3, #1]
    1c26:	4611      	mov	r1, r2
    1c28:	ea8c 0406 	eor.w	r4, ip, r6
    1c2c:	705c      	strb	r4, [r3, #1]
    1c2e:	f812 6c01 	ldrb.w	r6, [r2, #-1]
    1c32:	3b01      	subs	r3, #1
    1c34:	4074      	eors	r4, r6
    1c36:	f802 4c01 	strb.w	r4, [r2, #-1]
    1c3a:	3201      	adds	r2, #1
    1c3c:	4288      	cmp	r0, r1
    1c3e:	d8e8      	bhi.n	1c12 <strrev+0x1e>
    1c40:	4628      	mov	r0, r5
    1c42:	bdf8      	pop	{r3, r4, r5, r6, r7, pc}

00001c44 <itoa>:
    1c44:	b4f0      	push	{r4, r5, r6, r7}
    1c46:	4603      	mov	r3, r0
    1c48:	ea80 74e0 	eor.w	r4, r0, r0, asr #31
    1c4c:	eba4 74e0 	sub.w	r4, r4, r0, asr #31
    1c50:	2500      	movs	r5, #0
    1c52:	4f0b      	ldr	r7, [pc, #44]	; (1c80 <itoa+0x3c>)
    1c54:	e000      	b.n	1c58 <itoa+0x14>
    1c56:	4635      	mov	r5, r6
    1c58:	fb94 f0f2 	sdiv	r0, r4, r2
    1c5c:	fb02 4610 	mls	r6, r2, r0, r4
    1c60:	5dbc      	ldrb	r4, [r7, r6]
    1c62:	1c6e      	adds	r6, r5, #1
    1c64:	554c      	strb	r4, [r1, r5]
    1c66:	1e04      	subs	r4, r0, #0
    1c68:	dcf5      	bgt.n	1c56 <itoa+0x12>
    1c6a:	2b00      	cmp	r3, #0
    1c6c:	da02      	bge.n	1c74 <itoa+0x30>
    1c6e:	232d      	movs	r3, #45	; 0x2d
    1c70:	558b      	strb	r3, [r1, r6]
    1c72:	1cae      	adds	r6, r5, #2
    1c74:	2200      	movs	r2, #0
    1c76:	4608      	mov	r0, r1
    1c78:	558a      	strb	r2, [r1, r6]
    1c7a:	bcf0      	pop	{r4, r5, r6, r7}
    1c7c:	f7ff bfba 	b.w	1bf4 <strrev>
    1c80:	00003840 	.word	0x00003840

00001c84 <uart1Init>:
    1c84:	b5f0      	push	{r4, r5, r6, r7, lr}
    1c86:	b087      	sub	sp, #28
    1c88:	220f      	movs	r2, #15
    1c8a:	2600      	movs	r6, #0
    1c8c:	2501      	movs	r5, #1
    1c8e:	2702      	movs	r7, #2
    1c90:	a803      	add	r0, sp, #12
    1c92:	f88d 200d 	strb.w	r2, [sp, #13]
    1c96:	f88d 600c 	strb.w	r6, [sp, #12]
    1c9a:	f88d 500e 	strb.w	r5, [sp, #14]
    1c9e:	f88d 6010 	strb.w	r6, [sp, #16]
    1ca2:	f88d 700f 	strb.w	r7, [sp, #15]
    1ca6:	f240 0438 	movw	r4, #56	; 0x38
    1caa:	f000 f851 	bl	1d50 <PINSEL_ConfigPin>
    1cae:	2110      	movs	r1, #16
    1cb0:	a803      	add	r0, sp, #12
    1cb2:	f2c1 0400 	movt	r4, #4096	; 0x1000
    1cb6:	f88d 100d 	strb.w	r1, [sp, #13]
    1cba:	f88d 600c 	strb.w	r6, [sp, #12]
    1cbe:	f88d 500e 	strb.w	r5, [sp, #14]
    1cc2:	f88d 6010 	strb.w	r6, [sp, #16]
    1cc6:	f88d 700f 	strb.w	r7, [sp, #15]
    1cca:	f000 f841 	bl	1d50 <PINSEL_ConfigPin>
    1cce:	a801      	add	r0, sp, #4
    1cd0:	f7fe ff94 	bl	bfc <UART_ConfigStructInit>
    1cd4:	f44f 33e1 	mov.w	r3, #115200	; 0x1c200
    1cd8:	a901      	add	r1, sp, #4
    1cda:	6820      	ldr	r0, [r4, #0]
    1cdc:	9301      	str	r3, [sp, #4]
    1cde:	f7fe fb41 	bl	364 <UART_Init>
    1ce2:	a805      	add	r0, sp, #20
    1ce4:	f7ff f96e 	bl	fc4 <UART_FIFOConfigStructInit>
    1ce8:	6820      	ldr	r0, [r4, #0]
    1cea:	a905      	add	r1, sp, #20
    1cec:	f7ff f90a 	bl	f04 <UART_FIFOConfig>
    1cf0:	6820      	ldr	r0, [r4, #0]
    1cf2:	4629      	mov	r1, r5
    1cf4:	f7ff f96e 	bl	fd4 <UART_TxCmd>
    1cf8:	b007      	add	sp, #28
    1cfa:	bdf0      	pop	{r4, r5, r6, r7, pc}

00001cfc <term1PutText>:
    1cfc:	b510      	push	{r4, lr}
    1cfe:	4604      	mov	r4, r0
    1d00:	f001 fc70 	bl	35e4 <strlen>
    1d04:	f240 0338 	movw	r3, #56	; 0x38
    1d08:	f2c1 0300 	movt	r3, #4096	; 0x1000
    1d0c:	4602      	mov	r2, r0
    1d0e:	6818      	ldr	r0, [r3, #0]
    1d10:	4621      	mov	r1, r4
    1d12:	2301      	movs	r3, #1
    1d14:	e8bd 4010 	ldmia.w	sp!, {r4, lr}
    1d18:	f7fe bf9e 	b.w	c58 <UART_Send>

00001d1c <term1PutValue>:
    1d1c:	b510      	push	{r4, lr}
    1d1e:	b0a0      	sub	sp, #128	; 0x80
    1d20:	460c      	mov	r4, r1
    1d22:	220a      	movs	r2, #10
    1d24:	4669      	mov	r1, sp
    1d26:	f7ff ff8d 	bl	1c44 <itoa>
    1d2a:	4668      	mov	r0, sp
    1d2c:	f7ff ffe6 	bl	1cfc <term1PutText>
    1d30:	b924      	cbnz	r4, 1d3c <term1PutValue+0x20>
    1d32:	4804      	ldr	r0, [pc, #16]	; (1d44 <term1PutValue+0x28>)
    1d34:	f7ff ffe2 	bl	1cfc <term1PutText>
    1d38:	b020      	add	sp, #128	; 0x80
    1d3a:	bd10      	pop	{r4, pc}
    1d3c:	4802      	ldr	r0, [pc, #8]	; (1d48 <term1PutValue+0x2c>)
    1d3e:	f7ff ffdd 	bl	1cfc <term1PutText>
    1d42:	e7f9      	b.n	1d38 <term1PutValue+0x1c>
    1d44:	00003850 	.word	0x00003850
    1d48:	0000384c 	.word	0x0000384c

00001d4c <check_failed>:
    1d4c:	e7fe      	b.n	1d4c <check_failed>
    1d4e:	bf00      	nop

00001d50 <PINSEL_ConfigPin>:
    1d50:	b430      	push	{r4, r5}
    1d52:	7802      	ldrb	r2, [r0, #0]
    1d54:	7843      	ldrb	r3, [r0, #1]
    1d56:	0052      	lsls	r2, r2, #1
    1d58:	2b0f      	cmp	r3, #15
    1d5a:	7884      	ldrb	r4, [r0, #2]
    1d5c:	d901      	bls.n	1d62 <PINSEL_ConfigPin+0x12>
    1d5e:	3b10      	subs	r3, #16
    1d60:	3201      	adds	r2, #1
    1d62:	005d      	lsls	r5, r3, #1
    1d64:	2103      	movs	r1, #3
    1d66:	fa01 f105 	lsl.w	r1, r1, r5
    1d6a:	fa04 fc05 	lsl.w	ip, r4, r5
    1d6e:	0093      	lsls	r3, r2, #2
    1d70:	f103 4580 	add.w	r5, r3, #1073741824	; 0x40000000
    1d74:	f505 3530 	add.w	r5, r5, #180224	; 0x2c000
    1d78:	682a      	ldr	r2, [r5, #0]
    1d7a:	ea22 0401 	bic.w	r4, r2, r1
    1d7e:	ea44 030c 	orr.w	r3, r4, ip
    1d82:	602b      	str	r3, [r5, #0]
    1d84:	7801      	ldrb	r1, [r0, #0]
    1d86:	7843      	ldrb	r3, [r0, #1]
    1d88:	004a      	lsls	r2, r1, #1
    1d8a:	2b0f      	cmp	r3, #15
    1d8c:	78c4      	ldrb	r4, [r0, #3]
    1d8e:	d901      	bls.n	1d94 <PINSEL_ConfigPin+0x44>
    1d90:	3b10      	subs	r3, #16
    1d92:	3201      	adds	r2, #1
    1d94:	005d      	lsls	r5, r3, #1
    1d96:	2303      	movs	r3, #3
    1d98:	fa03 f105 	lsl.w	r1, r3, r5
    1d9c:	fa04 f405 	lsl.w	r4, r4, r5
    1da0:	f24c 0c40 	movw	ip, #49216	; 0xc040
    1da4:	f2c4 0c02 	movt	ip, #16386	; 0x4002
    1da8:	f85c 5022 	ldr.w	r5, [ip, r2, lsl #2]
    1dac:	ea25 0301 	bic.w	r3, r5, r1
    1db0:	ea43 0104 	orr.w	r1, r3, r4
    1db4:	f84c 1022 	str.w	r1, [ip, r2, lsl #2]
    1db8:	7903      	ldrb	r3, [r0, #4]
    1dba:	7802      	ldrb	r2, [r0, #0]
    1dbc:	2b01      	cmp	r3, #1
    1dbe:	7841      	ldrb	r1, [r0, #1]
    1dc0:	d00e      	beq.n	1de0 <PINSEL_ConfigPin+0x90>
    1dc2:	2001      	movs	r0, #1
    1dc4:	fa00 f101 	lsl.w	r1, r0, r1
    1dc8:	f24c 0c68 	movw	ip, #49256	; 0xc068
    1dcc:	f2c4 0c02 	movt	ip, #16386	; 0x4002
    1dd0:	f85c 3022 	ldr.w	r3, [ip, r2, lsl #2]
    1dd4:	ea23 0001 	bic.w	r0, r3, r1
    1dd8:	f84c 0022 	str.w	r0, [ip, r2, lsl #2]
    1ddc:	bc30      	pop	{r4, r5}
    1dde:	4770      	bx	lr
    1de0:	fa03 fc01 	lsl.w	ip, r3, r1
    1de4:	f24c 0068 	movw	r0, #49256	; 0xc068
    1de8:	f2c4 0002 	movt	r0, #16386	; 0x4002
    1dec:	f850 3022 	ldr.w	r3, [r0, r2, lsl #2]
    1df0:	ea43 010c 	orr.w	r1, r3, ip
    1df4:	f840 1022 	str.w	r1, [r0, r2, lsl #2]
    1df8:	e7f0      	b.n	1ddc <PINSEL_ConfigPin+0x8c>
    1dfa:	bf00      	nop

00001dfc <abort>:
    1dfc:	e7fe      	b.n	1dfc <abort>
    1dfe:	bf00      	nop

00001e00 <initTX>:
    1e00:	e92d 43f0 	stmdb	sp!, {r4, r5, r6, r7, r8, r9, lr}
    1e04:	b087      	sub	sp, #28
    1e06:	2400      	movs	r4, #0
    1e08:	2601      	movs	r6, #1
    1e0a:	2704      	movs	r7, #4
    1e0c:	4680      	mov	r8, r0
    1e0e:	f04f 0902 	mov.w	r9, #2
    1e12:	a803      	add	r0, sp, #12
    1e14:	f88d 400c 	strb.w	r4, [sp, #12]
    1e18:	f88d 600e 	strb.w	r6, [sp, #14]
    1e1c:	f88d 4010 	strb.w	r4, [sp, #16]
    1e20:	f88d 900f 	strb.w	r9, [sp, #15]
    1e24:	f88d 700d 	strb.w	r7, [sp, #13]
    1e28:	f7ff ff92 	bl	1d50 <PINSEL_ConfigPin>
    1e2c:	2205      	movs	r2, #5
    1e2e:	a803      	add	r0, sp, #12
    1e30:	f88d 200d 	strb.w	r2, [sp, #13]
    1e34:	f7ff ff8c 	bl	1d50 <PINSEL_ConfigPin>
    1e38:	2106      	movs	r1, #6
    1e3a:	a803      	add	r0, sp, #12
    1e3c:	f88d 100d 	strb.w	r1, [sp, #13]
    1e40:	f7ff ff86 	bl	1d50 <PINSEL_ConfigPin>
    1e44:	2307      	movs	r3, #7
    1e46:	a803      	add	r0, sp, #12
    1e48:	f88d 300d 	strb.w	r3, [sp, #13]
    1e4c:	2508      	movs	r5, #8
    1e4e:	f7ff ff7f 	bl	1d50 <PINSEL_ConfigPin>
    1e52:	a803      	add	r0, sp, #12
    1e54:	f88d 500d 	strb.w	r5, [sp, #13]
    1e58:	f7ff ff7a 	bl	1d50 <PINSEL_ConfigPin>
    1e5c:	f44f 4500 	mov.w	r5, #32768	; 0x8000
    1e60:	2209      	movs	r2, #9
    1e62:	a803      	add	r0, sp, #12
    1e64:	f2c4 050a 	movt	r5, #16394	; 0x400a
    1e68:	f88d 200d 	strb.w	r2, [sp, #13]
    1e6c:	f7ff ff70 	bl	1d50 <PINSEL_ConfigPin>
    1e70:	211d      	movs	r1, #29
    1e72:	a803      	add	r0, sp, #12
    1e74:	f88d 100d 	strb.w	r1, [sp, #13]
    1e78:	f88d 700c 	strb.w	r7, [sp, #12]
    1e7c:	f88d 600e 	strb.w	r6, [sp, #14]
    1e80:	f88d 4010 	strb.w	r4, [sp, #16]
    1e84:	f88d 900f 	strb.w	r9, [sp, #15]
    1e88:	f7ff ff62 	bl	1d50 <PINSEL_ConfigPin>
    1e8c:	4628      	mov	r0, r5
    1e8e:	9401      	str	r4, [sp, #4]
    1e90:	9402      	str	r4, [sp, #8]
    1e92:	f88d 6004 	strb.w	r6, [sp, #4]
    1e96:	f88d 6006 	strb.w	r6, [sp, #6]
    1e9a:	f88d 6007 	strb.w	r6, [sp, #7]
    1e9e:	f7ff f91b 	bl	10d8 <I2S_Init>
    1ea2:	eb0d 0207 	add.w	r2, sp, r7
    1ea6:	4628      	mov	r0, r5
    1ea8:	4621      	mov	r1, r4
    1eaa:	f7ff f92f 	bl	110c <I2S_Config>
    1eae:	4628      	mov	r0, r5
    1eb0:	4621      	mov	r1, r4
    1eb2:	f7ff f99b 	bl	11ec <I2S_Stop>
    1eb6:	4641      	mov	r1, r8
    1eb8:	4622      	mov	r2, r4
    1eba:	4628      	mov	r0, r5
    1ebc:	f7ff f9c6 	bl	124c <I2S_FreqConfig>
    1ec0:	f240 035c 	movw	r3, #92	; 0x5c
    1ec4:	f2c1 0300 	movt	r3, #4096	; 0x1000
    1ec8:	4619      	mov	r1, r3
    1eca:	701c      	strb	r4, [r3, #0]
    1ecc:	705c      	strb	r4, [r3, #1]
    1ece:	709e      	strb	r6, [r3, #2]
    1ed0:	4622      	mov	r2, r4
    1ed2:	4628      	mov	r0, r5
    1ed4:	f7ff fa78 	bl	13c8 <I2S_ModeConfig>
    1ed8:	a905      	add	r1, sp, #20
    1eda:	4622      	mov	r2, r4
    1edc:	4628      	mov	r0, r5
    1ede:	f88d 4014 	strb.w	r4, [sp, #20]
    1ee2:	f88d 7015 	strb.w	r7, [sp, #21]
    1ee6:	f7ff fae3 	bl	14b0 <I2S_DMAConfig>
    1eea:	4628      	mov	r0, r5
    1eec:	f7ff f968 	bl	11c0 <I2S_Start>
    1ef0:	4628      	mov	r0, r5
    1ef2:	4621      	mov	r1, r4
    1ef4:	4622      	mov	r2, r4
    1ef6:	4633      	mov	r3, r6
    1ef8:	f7ff fb1e 	bl	1538 <I2S_DMACmd>
    1efc:	b007      	add	sp, #28
    1efe:	e8bd 83f0 	ldmia.w	sp!, {r4, r5, r6, r7, r8, r9, pc}
    1f02:	bf00      	nop

00001f04 <__aeabi_uldivmod>:
    1f04:	b94b      	cbnz	r3, 1f1a <__aeabi_uldivmod+0x16>
    1f06:	b942      	cbnz	r2, 1f1a <__aeabi_uldivmod+0x16>
    1f08:	2900      	cmp	r1, #0
    1f0a:	bf08      	it	eq
    1f0c:	2800      	cmpeq	r0, #0
    1f0e:	d002      	beq.n	1f16 <__aeabi_uldivmod+0x12>
    1f10:	f04f 31ff 	mov.w	r1, #4294967295
    1f14:	4608      	mov	r0, r1
    1f16:	f001 b871 	b.w	2ffc <__aeabi_idiv0>
    1f1a:	b082      	sub	sp, #8
    1f1c:	46ec      	mov	ip, sp
    1f1e:	e92d 5000 	stmdb	sp!, {ip, lr}
    1f22:	f000 f81d 	bl	1f60 <__gnu_uldivmod_helper>
    1f26:	f8dd e004 	ldr.w	lr, [sp, #4]
    1f2a:	b002      	add	sp, #8
    1f2c:	bc0c      	pop	{r2, r3}
    1f2e:	4770      	bx	lr

00001f30 <__gnu_ldivmod_helper>:
    1f30:	e92d 4370 	stmdb	sp!, {r4, r5, r6, r8, r9, lr}
    1f34:	4615      	mov	r5, r2
    1f36:	4680      	mov	r8, r0
    1f38:	4689      	mov	r9, r1
    1f3a:	461c      	mov	r4, r3
    1f3c:	f001 f860 	bl	3000 <__divdi3>
    1f40:	fb05 f601 	mul.w	r6, r5, r1
    1f44:	fba5 2300 	umull	r2, r3, r5, r0
    1f48:	fb00 6404 	mla	r4, r0, r4, r6
    1f4c:	18e3      	adds	r3, r4, r3
    1f4e:	9c06      	ldr	r4, [sp, #24]
    1f50:	ebb8 0202 	subs.w	r2, r8, r2
    1f54:	eb69 0303 	sbc.w	r3, r9, r3
    1f58:	e9c4 2300 	strd	r2, r3, [r4]
    1f5c:	e8bd 8370 	ldmia.w	sp!, {r4, r5, r6, r8, r9, pc}

00001f60 <__gnu_uldivmod_helper>:
    1f60:	b5f8      	push	{r3, r4, r5, r6, r7, lr}
    1f62:	4614      	mov	r4, r2
    1f64:	4606      	mov	r6, r0
    1f66:	460f      	mov	r7, r1
    1f68:	461d      	mov	r5, r3
    1f6a:	f001 f9ad 	bl	32c8 <__udivdi3>
    1f6e:	fb00 f505 	mul.w	r5, r0, r5
    1f72:	fba0 2304 	umull	r2, r3, r0, r4
    1f76:	fb04 5401 	mla	r4, r4, r1, r5
    1f7a:	18e3      	adds	r3, r4, r3
    1f7c:	9c06      	ldr	r4, [sp, #24]
    1f7e:	1ab2      	subs	r2, r6, r2
    1f80:	eb67 0303 	sbc.w	r3, r7, r3
    1f84:	e9c4 2300 	strd	r2, r3, [r4]
    1f88:	bdf8      	pop	{r3, r4, r5, r6, r7, pc}
    1f8a:	bf00      	nop

00001f8c <_Unwind_decode_target2>:
    1f8c:	6803      	ldr	r3, [r0, #0]
    1f8e:	b103      	cbz	r3, 1f92 <_Unwind_decode_target2+0x6>
    1f90:	181b      	adds	r3, r3, r0
    1f92:	4618      	mov	r0, r3
    1f94:	4770      	bx	lr
    1f96:	bf00      	nop

00001f98 <selfrel_offset31>:
    1f98:	6803      	ldr	r3, [r0, #0]
    1f9a:	005a      	lsls	r2, r3, #1
    1f9c:	bf4c      	ite	mi
    1f9e:	f043 4300 	orrmi.w	r3, r3, #2147483648	; 0x80000000
    1fa2:	f023 4300 	bicpl.w	r3, r3, #2147483648	; 0x80000000
    1fa6:	18c0      	adds	r0, r0, r3
    1fa8:	4770      	bx	lr
    1faa:	bf00      	nop

00001fac <search_EIT_table>:
    1fac:	e92d 4ff8 	stmdb	sp!, {r3, r4, r5, r6, r7, r8, r9, sl, fp, lr}
    1fb0:	4604      	mov	r4, r0
    1fb2:	4691      	mov	r9, r2
    1fb4:	b341      	cbz	r1, 2008 <search_EIT_table+0x5c>
    1fb6:	f101 3bff 	add.w	fp, r1, #4294967295
    1fba:	46da      	mov	sl, fp
    1fbc:	2700      	movs	r7, #0
    1fbe:	eb07 000a 	add.w	r0, r7, sl
    1fc2:	eb00 75d0 	add.w	r5, r0, r0, lsr #31
    1fc6:	106d      	asrs	r5, r5, #1
    1fc8:	eb04 06c5 	add.w	r6, r4, r5, lsl #3
    1fcc:	4630      	mov	r0, r6
    1fce:	f7ff ffe3 	bl	1f98 <selfrel_offset31>
    1fd2:	45ab      	cmp	fp, r5
    1fd4:	4680      	mov	r8, r0
    1fd6:	d010      	beq.n	1ffa <search_EIT_table+0x4e>
    1fd8:	1c69      	adds	r1, r5, #1
    1fda:	eb04 00c1 	add.w	r0, r4, r1, lsl #3
    1fde:	f7ff ffdb 	bl	1f98 <selfrel_offset31>
    1fe2:	3801      	subs	r0, #1
    1fe4:	45c8      	cmp	r8, r9
    1fe6:	d904      	bls.n	1ff2 <search_EIT_table+0x46>
    1fe8:	42bd      	cmp	r5, r7
    1fea:	d009      	beq.n	2000 <search_EIT_table+0x54>
    1fec:	f105 3aff 	add.w	sl, r5, #4294967295
    1ff0:	e7e5      	b.n	1fbe <search_EIT_table+0x12>
    1ff2:	4548      	cmp	r0, r9
    1ff4:	d205      	bcs.n	2002 <search_EIT_table+0x56>
    1ff6:	1c6f      	adds	r7, r5, #1
    1ff8:	e7e1      	b.n	1fbe <search_EIT_table+0x12>
    1ffa:	f04f 30ff 	mov.w	r0, #4294967295
    1ffe:	e7f1      	b.n	1fe4 <search_EIT_table+0x38>
    2000:	2600      	movs	r6, #0
    2002:	4630      	mov	r0, r6
    2004:	e8bd 8ff8 	ldmia.w	sp!, {r3, r4, r5, r6, r7, r8, r9, sl, fp, pc}
    2008:	460e      	mov	r6, r1
    200a:	4630      	mov	r0, r6
    200c:	e8bd 8ff8 	ldmia.w	sp!, {r3, r4, r5, r6, r7, r8, r9, sl, fp, pc}

00002010 <get_eit_entry>:
    2010:	b530      	push	{r4, r5, lr}
    2012:	4b2b      	ldr	r3, [pc, #172]	; (20c0 <get_eit_entry+0xb0>)
    2014:	b083      	sub	sp, #12
    2016:	4604      	mov	r4, r0
    2018:	1e8d      	subs	r5, r1, #2
    201a:	2b00      	cmp	r3, #0
    201c:	d049      	beq.n	20b2 <get_eit_entry+0xa2>
    201e:	4628      	mov	r0, r5
    2020:	a901      	add	r1, sp, #4
    2022:	f3af 8000 	nop.w
    2026:	4603      	mov	r3, r0
    2028:	2800      	cmp	r0, #0
    202a:	d022      	beq.n	2072 <get_eit_entry+0x62>
    202c:	462a      	mov	r2, r5
    202e:	4618      	mov	r0, r3
    2030:	9901      	ldr	r1, [sp, #4]
    2032:	f7ff ffbb 	bl	1fac <search_EIT_table>
    2036:	4605      	mov	r5, r0
    2038:	2800      	cmp	r0, #0
    203a:	d01d      	beq.n	2078 <get_eit_entry+0x68>
    203c:	f7ff ffac 	bl	1f98 <selfrel_offset31>
    2040:	686b      	ldr	r3, [r5, #4]
    2042:	64a0      	str	r0, [r4, #72]	; 0x48
    2044:	2b01      	cmp	r3, #1
    2046:	d010      	beq.n	206a <get_eit_entry+0x5a>
    2048:	1d28      	adds	r0, r5, #4
    204a:	2b00      	cmp	r3, #0
    204c:	db22      	blt.n	2094 <get_eit_entry+0x84>
    204e:	f7ff ffa3 	bl	1f98 <selfrel_offset31>
    2052:	2100      	movs	r1, #0
    2054:	64e0      	str	r0, [r4, #76]	; 0x4c
    2056:	6521      	str	r1, [r4, #80]	; 0x50
    2058:	6803      	ldr	r3, [r0, #0]
    205a:	2b00      	cmp	r3, #0
    205c:	db0f      	blt.n	207e <get_eit_entry+0x6e>
    205e:	f7ff ff9b 	bl	1f98 <selfrel_offset31>
    2062:	6120      	str	r0, [r4, #16]
    2064:	2000      	movs	r0, #0
    2066:	b003      	add	sp, #12
    2068:	bd30      	pop	{r4, r5, pc}
    206a:	2300      	movs	r3, #0
    206c:	6123      	str	r3, [r4, #16]
    206e:	2005      	movs	r0, #5
    2070:	e7f9      	b.n	2066 <get_eit_entry+0x56>
    2072:	6120      	str	r0, [r4, #16]
    2074:	2009      	movs	r0, #9
    2076:	e7f6      	b.n	2066 <get_eit_entry+0x56>
    2078:	6120      	str	r0, [r4, #16]
    207a:	2009      	movs	r0, #9
    207c:	e7f3      	b.n	2066 <get_eit_entry+0x56>
    207e:	f3c3 6003 	ubfx	r0, r3, #24, #4
    2082:	b158      	cbz	r0, 209c <get_eit_entry+0x8c>
    2084:	2801      	cmp	r0, #1
    2086:	d00c      	beq.n	20a2 <get_eit_entry+0x92>
    2088:	2802      	cmp	r0, #2
    208a:	d00e      	beq.n	20aa <get_eit_entry+0x9a>
    208c:	2000      	movs	r0, #0
    208e:	6120      	str	r0, [r4, #16]
    2090:	2009      	movs	r0, #9
    2092:	e7e8      	b.n	2066 <get_eit_entry+0x56>
    2094:	2201      	movs	r2, #1
    2096:	64e0      	str	r0, [r4, #76]	; 0x4c
    2098:	6522      	str	r2, [r4, #80]	; 0x50
    209a:	e7dd      	b.n	2058 <get_eit_entry+0x48>
    209c:	4b09      	ldr	r3, [pc, #36]	; (20c4 <get_eit_entry+0xb4>)
    209e:	6123      	str	r3, [r4, #16]
    20a0:	e7e1      	b.n	2066 <get_eit_entry+0x56>
    20a2:	4a09      	ldr	r2, [pc, #36]	; (20c8 <get_eit_entry+0xb8>)
    20a4:	2000      	movs	r0, #0
    20a6:	6122      	str	r2, [r4, #16]
    20a8:	e7dd      	b.n	2066 <get_eit_entry+0x56>
    20aa:	4908      	ldr	r1, [pc, #32]	; (20cc <get_eit_entry+0xbc>)
    20ac:	2000      	movs	r0, #0
    20ae:	6121      	str	r1, [r4, #16]
    20b0:	e7d9      	b.n	2066 <get_eit_entry+0x56>
    20b2:	4a07      	ldr	r2, [pc, #28]	; (20d0 <get_eit_entry+0xc0>)
    20b4:	4907      	ldr	r1, [pc, #28]	; (20d4 <get_eit_entry+0xc4>)
    20b6:	4613      	mov	r3, r2
    20b8:	1a88      	subs	r0, r1, r2
    20ba:	10c2      	asrs	r2, r0, #3
    20bc:	9201      	str	r2, [sp, #4]
    20be:	e7b5      	b.n	202c <get_eit_entry+0x1c>
    20c0:	00000000 	.word	0x00000000
    20c4:	000025d5 	.word	0x000025d5
    20c8:	000025d1 	.word	0x000025d1
    20cc:	000025cd 	.word	0x000025cd
    20d0:	00003884 	.word	0x00003884
    20d4:	0000396c 	.word	0x0000396c

000020d8 <restore_non_core_regs>:
    20d8:	6803      	ldr	r3, [r0, #0]
    20da:	b510      	push	{r4, lr}
    20dc:	4604      	mov	r4, r0
    20de:	07d8      	lsls	r0, r3, #31
    20e0:	d406      	bmi.n	20f0 <restore_non_core_regs+0x18>
    20e2:	0799      	lsls	r1, r3, #30
    20e4:	f104 0048 	add.w	r0, r4, #72	; 0x48
    20e8:	d509      	bpl.n	20fe <restore_non_core_regs+0x26>
    20ea:	f000 fd09 	bl	2b00 <__gnu_Unwind_Restore_VFP_D>
    20ee:	6823      	ldr	r3, [r4, #0]
    20f0:	075a      	lsls	r2, r3, #29
    20f2:	d509      	bpl.n	2108 <restore_non_core_regs+0x30>
    20f4:	0718      	lsls	r0, r3, #28
    20f6:	d50e      	bpl.n	2116 <restore_non_core_regs+0x3e>
    20f8:	06d9      	lsls	r1, r3, #27
    20fa:	d513      	bpl.n	2124 <restore_non_core_regs+0x4c>
    20fc:	bd10      	pop	{r4, pc}
    20fe:	f000 fcf7 	bl	2af0 <__gnu_Unwind_Restore_VFP>
    2102:	6823      	ldr	r3, [r4, #0]
    2104:	075a      	lsls	r2, r3, #29
    2106:	d4f5      	bmi.n	20f4 <restore_non_core_regs+0x1c>
    2108:	f104 00d0 	add.w	r0, r4, #208	; 0xd0
    210c:	f000 fd00 	bl	2b10 <__gnu_Unwind_Restore_VFP_D_16_to_31>
    2110:	6823      	ldr	r3, [r4, #0]
    2112:	0718      	lsls	r0, r3, #28
    2114:	d4f0      	bmi.n	20f8 <restore_non_core_regs+0x20>
    2116:	f504 70d8 	add.w	r0, r4, #432	; 0x1b0
    211a:	f000 fd01 	bl	2b20 <__gnu_Unwind_Restore_WMMXD>
    211e:	6823      	ldr	r3, [r4, #0]
    2120:	06d9      	lsls	r1, r3, #27
    2122:	d4eb      	bmi.n	20fc <restore_non_core_regs+0x24>
    2124:	f504 700c 	add.w	r0, r4, #560	; 0x230
    2128:	e8bd 4010 	ldmia.w	sp!, {r4, lr}
    212c:	f000 bd3c 	b.w	2ba8 <__gnu_Unwind_Restore_WMMXC>

00002130 <unwind_phase2_forced>:
    2130:	e92d 47f0 	stmdb	sp!, {r4, r5, r6, r7, r8, r9, sl, lr}
    2134:	f5ad 6d91 	sub.w	sp, sp, #1160	; 0x488
    2138:	ac02      	add	r4, sp, #8
    213a:	1d0f      	adds	r7, r1, #4
    213c:	1d26      	adds	r6, r4, #4
    213e:	4605      	mov	r5, r0
    2140:	4691      	mov	r9, r2
    2142:	cf0f      	ldmia	r7!, {r0, r1, r2, r3}
    2144:	c60f      	stmia	r6!, {r0, r1, r2, r3}
    2146:	cf0f      	ldmia	r7!, {r0, r1, r2, r3}
    2148:	c60f      	stmia	r6!, {r0, r1, r2, r3}
    214a:	cf0f      	ldmia	r7!, {r0, r1, r2, r3}
    214c:	c60f      	stmia	r6!, {r0, r1, r2, r3}
    214e:	e897 000f 	ldmia.w	r7, {r0, r1, r2, r3}
    2152:	f8d5 800c 	ldr.w	r8, [r5, #12]
    2156:	2700      	movs	r7, #0
    2158:	f8d5 a018 	ldr.w	sl, [r5, #24]
    215c:	e886 000f 	stmia.w	r6, {r0, r1, r2, r3}
    2160:	6c21      	ldr	r1, [r4, #64]	; 0x40
    2162:	4628      	mov	r0, r5
    2164:	6027      	str	r7, [r4, #0]
    2166:	f7ff ff53 	bl	2010 <get_eit_entry>
    216a:	4606      	mov	r6, r0
    216c:	45b9      	cmp	r9, r7
    216e:	bf14      	ite	ne
    2170:	f04f 090a 	movne.w	r9, #10
    2174:	f04f 0909 	moveq.w	r9, #9
    2178:	b1fe      	cbz	r6, 21ba <unwind_phase2_forced+0x8a>
    217a:	6ba1      	ldr	r1, [r4, #56]	; 0x38
    217c:	f049 0910 	orr.w	r9, r9, #16
    2180:	6461      	str	r1, [r4, #68]	; 0x44
    2182:	2001      	movs	r0, #1
    2184:	e88d 0410 	stmia.w	sp, {r4, sl}
    2188:	4649      	mov	r1, r9
    218a:	462a      	mov	r2, r5
    218c:	462b      	mov	r3, r5
    218e:	47c0      	blx	r8
    2190:	2800      	cmp	r0, #0
    2192:	d12b      	bne.n	21ec <unwind_phase2_forced+0xbc>
    2194:	2e00      	cmp	r6, #0
    2196:	d12a      	bne.n	21ee <unwind_phase2_forced+0xbe>
    2198:	4620      	mov	r0, r4
    219a:	a992      	add	r1, sp, #584	; 0x248
    219c:	f44f 7210 	mov.w	r2, #576	; 0x240
    21a0:	f001 f9de 	bl	3560 <memcpy>
    21a4:	2f08      	cmp	r7, #8
    21a6:	d128      	bne.n	21fa <unwind_phase2_forced+0xca>
    21a8:	6c21      	ldr	r1, [r4, #64]	; 0x40
    21aa:	4628      	mov	r0, r5
    21ac:	f7ff ff30 	bl	2010 <get_eit_entry>
    21b0:	4606      	mov	r6, r0
    21b2:	f04f 0909 	mov.w	r9, #9
    21b6:	2e00      	cmp	r6, #0
    21b8:	d1df      	bne.n	217a <unwind_phase2_forced+0x4a>
    21ba:	6c20      	ldr	r0, [r4, #64]	; 0x40
    21bc:	4621      	mov	r1, r4
    21be:	f44f 7210 	mov.w	r2, #576	; 0x240
    21c2:	6168      	str	r0, [r5, #20]
    21c4:	a892      	add	r0, sp, #584	; 0x248
    21c6:	f001 f9cb 	bl	3560 <memcpy>
    21ca:	692f      	ldr	r7, [r5, #16]
    21cc:	4629      	mov	r1, r5
    21ce:	aa92      	add	r2, sp, #584	; 0x248
    21d0:	4648      	mov	r0, r9
    21d2:	47b8      	blx	r7
    21d4:	9ba0      	ldr	r3, [sp, #640]	; 0x280
    21d6:	4607      	mov	r7, r0
    21d8:	6463      	str	r3, [r4, #68]	; 0x44
    21da:	2001      	movs	r0, #1
    21dc:	e88d 0410 	stmia.w	sp, {r4, sl}
    21e0:	4649      	mov	r1, r9
    21e2:	462a      	mov	r2, r5
    21e4:	462b      	mov	r3, r5
    21e6:	47c0      	blx	r8
    21e8:	2800      	cmp	r0, #0
    21ea:	d0d3      	beq.n	2194 <unwind_phase2_forced+0x64>
    21ec:	2609      	movs	r6, #9
    21ee:	4630      	mov	r0, r6
    21f0:	b022      	add	sp, #136	; 0x88
    21f2:	f50d 6d80 	add.w	sp, sp, #1024	; 0x400
    21f6:	e8bd 87f0 	ldmia.w	sp!, {r4, r5, r6, r7, r8, r9, sl, pc}
    21fa:	2f07      	cmp	r7, #7
    21fc:	d1f6      	bne.n	21ec <unwind_phase2_forced+0xbc>
    21fe:	1d20      	adds	r0, r4, #4
    2200:	f000 fc6a 	bl	2ad8 <__restore_core_regs>

00002204 <unwind_phase2>:
    2204:	b538      	push	{r3, r4, r5, lr}
    2206:	4604      	mov	r4, r0
    2208:	460d      	mov	r5, r1
    220a:	6c29      	ldr	r1, [r5, #64]	; 0x40
    220c:	4620      	mov	r0, r4
    220e:	f7ff feff 	bl	2010 <get_eit_entry>
    2212:	b950      	cbnz	r0, 222a <unwind_phase2+0x26>
    2214:	6c2a      	ldr	r2, [r5, #64]	; 0x40
    2216:	2001      	movs	r0, #1
    2218:	6162      	str	r2, [r4, #20]
    221a:	6923      	ldr	r3, [r4, #16]
    221c:	4621      	mov	r1, r4
    221e:	462a      	mov	r2, r5
    2220:	4798      	blx	r3
    2222:	2808      	cmp	r0, #8
    2224:	d0f1      	beq.n	220a <unwind_phase2+0x6>
    2226:	2807      	cmp	r0, #7
    2228:	d001      	beq.n	222e <unwind_phase2+0x2a>
    222a:	f7ff fde7 	bl	1dfc <abort>
    222e:	1d28      	adds	r0, r5, #4
    2230:	f000 fc52 	bl	2ad8 <__restore_core_regs>

00002234 <_Unwind_VRS_Get>:
    2234:	b911      	cbnz	r1, 223c <_Unwind_VRS_Get+0x8>
    2236:	b133      	cbz	r3, 2246 <_Unwind_VRS_Get+0x12>
    2238:	2002      	movs	r0, #2
    223a:	4770      	bx	lr
    223c:	2904      	cmp	r1, #4
    223e:	bf8c      	ite	hi
    2240:	2002      	movhi	r0, #2
    2242:	2001      	movls	r0, #1
    2244:	4770      	bx	lr
    2246:	2a0f      	cmp	r2, #15
    2248:	d901      	bls.n	224e <_Unwind_VRS_Get+0x1a>
    224a:	2002      	movs	r0, #2
    224c:	4770      	bx	lr
    224e:	eb00 0082 	add.w	r0, r0, r2, lsl #2
    2252:	6842      	ldr	r2, [r0, #4]
    2254:	4618      	mov	r0, r3
    2256:	9b00      	ldr	r3, [sp, #0]
    2258:	601a      	str	r2, [r3, #0]
    225a:	4770      	bx	lr

0000225c <_Unwind_GetGR>:
    225c:	b510      	push	{r4, lr}
    225e:	460a      	mov	r2, r1
    2260:	b084      	sub	sp, #16
    2262:	2100      	movs	r1, #0
    2264:	460b      	mov	r3, r1
    2266:	ac03      	add	r4, sp, #12
    2268:	9400      	str	r4, [sp, #0]
    226a:	f7ff ffe3 	bl	2234 <_Unwind_VRS_Get>
    226e:	9803      	ldr	r0, [sp, #12]
    2270:	b004      	add	sp, #16
    2272:	bd10      	pop	{r4, pc}

00002274 <_Unwind_VRS_Set>:
    2274:	b911      	cbnz	r1, 227c <_Unwind_VRS_Set+0x8>
    2276:	b133      	cbz	r3, 2286 <_Unwind_VRS_Set+0x12>
    2278:	2002      	movs	r0, #2
    227a:	4770      	bx	lr
    227c:	2904      	cmp	r1, #4
    227e:	bf8c      	ite	hi
    2280:	2002      	movhi	r0, #2
    2282:	2001      	movls	r0, #1
    2284:	4770      	bx	lr
    2286:	2a0f      	cmp	r2, #15
    2288:	d901      	bls.n	228e <_Unwind_VRS_Set+0x1a>
    228a:	2002      	movs	r0, #2
    228c:	4770      	bx	lr
    228e:	9900      	ldr	r1, [sp, #0]
    2290:	eb00 0282 	add.w	r2, r0, r2, lsl #2
    2294:	6809      	ldr	r1, [r1, #0]
    2296:	4618      	mov	r0, r3
    2298:	6051      	str	r1, [r2, #4]
    229a:	4770      	bx	lr

0000229c <_Unwind_SetGR>:
    229c:	b500      	push	{lr}
    229e:	b085      	sub	sp, #20
    22a0:	ab04      	add	r3, sp, #16
    22a2:	f843 2d04 	str.w	r2, [r3, #-4]!
    22a6:	460a      	mov	r2, r1
    22a8:	2100      	movs	r1, #0
    22aa:	9300      	str	r3, [sp, #0]
    22ac:	460b      	mov	r3, r1
    22ae:	f7ff ffe1 	bl	2274 <_Unwind_VRS_Set>
    22b2:	b005      	add	sp, #20
    22b4:	bd00      	pop	{pc}
    22b6:	bf00      	nop

000022b8 <__gnu_unwind_pr_common>:
    22b8:	e92d 4ff0 	stmdb	sp!, {r4, r5, r6, r7, r8, r9, sl, fp, lr}
    22bc:	6ccd      	ldr	r5, [r1, #76]	; 0x4c
    22be:	460c      	mov	r4, r1
    22c0:	f855 1b04 	ldr.w	r1, [r5], #4
    22c4:	b08b      	sub	sp, #44	; 0x2c
    22c6:	4617      	mov	r7, r2
    22c8:	f000 0208 	and.w	r2, r0, #8
    22cc:	461e      	mov	r6, r3
    22ce:	9203      	str	r2, [sp, #12]
    22d0:	f000 0803 	and.w	r8, r0, #3
    22d4:	9507      	str	r5, [sp, #28]
    22d6:	2b00      	cmp	r3, #0
    22d8:	f040 80e0 	bne.w	249c <__gnu_unwind_pr_common+0x1e4>
    22dc:	0209      	lsls	r1, r1, #8
    22de:	9106      	str	r1, [sp, #24]
    22e0:	6d21      	ldr	r1, [r4, #80]	; 0x50
    22e2:	f88d 3021 	strb.w	r3, [sp, #33]	; 0x21
    22e6:	2303      	movs	r3, #3
    22e8:	f1b8 0f02 	cmp.w	r8, #2
    22ec:	f88d 3020 	strb.w	r3, [sp, #32]
    22f0:	bf08      	it	eq
    22f2:	6ba5      	ldreq	r5, [r4, #56]	; 0x38
    22f4:	f011 0301 	ands.w	r3, r1, #1
    22f8:	f040 80e4 	bne.w	24c4 <__gnu_unwind_pr_common+0x20c>
    22fc:	9301      	str	r3, [sp, #4]
    22fe:	f104 0358 	add.w	r3, r4, #88	; 0x58
    2302:	9302      	str	r3, [sp, #8]
    2304:	f8d5 9000 	ldr.w	r9, [r5]
    2308:	f1b9 0f00 	cmp.w	r9, #0
    230c:	f000 80dc 	beq.w	24c8 <__gnu_unwind_pr_common+0x210>
    2310:	2e02      	cmp	r6, #2
    2312:	f000 80bf 	beq.w	2494 <__gnu_unwind_pr_common+0x1dc>
    2316:	f8b5 9000 	ldrh.w	r9, [r5]
    231a:	f8b5 a002 	ldrh.w	sl, [r5, #2]
    231e:	3504      	adds	r5, #4
    2320:	6ca2      	ldr	r2, [r4, #72]	; 0x48
    2322:	210f      	movs	r1, #15
    2324:	f02a 0b01 	bic.w	fp, sl, #1
    2328:	4638      	mov	r0, r7
    232a:	4493      	add	fp, r2
    232c:	f7ff ff96 	bl	225c <_Unwind_GetGR>
    2330:	4583      	cmp	fp, r0
    2332:	d818      	bhi.n	2366 <__gnu_unwind_pr_common+0xae>
    2334:	f029 0c01 	bic.w	ip, r9, #1
    2338:	44e3      	add	fp, ip
    233a:	f00a 0a01 	and.w	sl, sl, #1
    233e:	f009 0301 	and.w	r3, r9, #1
    2342:	4558      	cmp	r0, fp
    2344:	ea43 094a 	orr.w	r9, r3, sl, lsl #1
    2348:	bf2c      	ite	cs
    234a:	2000      	movcs	r0, #0
    234c:	2001      	movcc	r0, #1
    234e:	f1b9 0f01 	cmp.w	r9, #1
    2352:	d012      	beq.n	237a <__gnu_unwind_pr_common+0xc2>
    2354:	d232      	bcs.n	23bc <__gnu_unwind_pr_common+0x104>
    2356:	f1b8 0f00 	cmp.w	r8, #0
    235a:	d002      	beq.n	2362 <__gnu_unwind_pr_common+0xaa>
    235c:	2800      	cmp	r0, #0
    235e:	f040 8117 	bne.w	2590 <__gnu_unwind_pr_common+0x2d8>
    2362:	3504      	adds	r5, #4
    2364:	e7ce      	b.n	2304 <__gnu_unwind_pr_common+0x4c>
    2366:	f00a 0a01 	and.w	sl, sl, #1
    236a:	f009 0301 	and.w	r3, r9, #1
    236e:	ea43 094a 	orr.w	r9, r3, sl, lsl #1
    2372:	2000      	movs	r0, #0
    2374:	f1b9 0f01 	cmp.w	r9, #1
    2378:	d1ec      	bne.n	2354 <__gnu_unwind_pr_common+0x9c>
    237a:	f1b8 0f00 	cmp.w	r8, #0
    237e:	f040 80c8 	bne.w	2512 <__gnu_unwind_pr_common+0x25a>
    2382:	b1c8      	cbz	r0, 23b8 <__gnu_unwind_pr_common+0x100>
    2384:	686b      	ldr	r3, [r5, #4]
    2386:	f8d5 9000 	ldr.w	r9, [r5]
    238a:	1c9a      	adds	r2, r3, #2
    238c:	d019      	beq.n	23c2 <__gnu_unwind_pr_common+0x10a>
    238e:	9a02      	ldr	r2, [sp, #8]
    2390:	3301      	adds	r3, #1
    2392:	9209      	str	r2, [sp, #36]	; 0x24
    2394:	d00d      	beq.n	23b2 <__gnu_unwind_pr_common+0xfa>
    2396:	1d28      	adds	r0, r5, #4
    2398:	f7ff fdf8 	bl	1f8c <_Unwind_decode_target2>
    239c:	ea4f 72d9 	mov.w	r2, r9, lsr #31
    23a0:	4601      	mov	r1, r0
    23a2:	ab09      	add	r3, sp, #36	; 0x24
    23a4:	4620      	mov	r0, r4
    23a6:	f3af 8000 	nop.w
    23aa:	2800      	cmp	r0, #0
    23ac:	f000 80ec 	beq.w	2588 <__gnu_unwind_pr_common+0x2d0>
    23b0:	9a09      	ldr	r2, [sp, #36]	; 0x24
    23b2:	2a00      	cmp	r2, #0
    23b4:	f040 80cc 	bne.w	2550 <__gnu_unwind_pr_common+0x298>
    23b8:	3508      	adds	r5, #8
    23ba:	e7a3      	b.n	2304 <__gnu_unwind_pr_common+0x4c>
    23bc:	f1b9 0f02 	cmp.w	r9, #2
    23c0:	d003      	beq.n	23ca <__gnu_unwind_pr_common+0x112>
    23c2:	2009      	movs	r0, #9
    23c4:	b00b      	add	sp, #44	; 0x2c
    23c6:	e8bd 8ff0 	ldmia.w	sp!, {r4, r5, r6, r7, r8, r9, sl, fp, pc}
    23ca:	682b      	ldr	r3, [r5, #0]
    23cc:	f023 4200 	bic.w	r2, r3, #2147483648	; 0x80000000
    23d0:	9200      	str	r2, [sp, #0]
    23d2:	f1b8 0f00 	cmp.w	r8, #0
    23d6:	f040 8083 	bne.w	24e0 <__gnu_unwind_pr_common+0x228>
    23da:	2800      	cmp	r0, #0
    23dc:	d053      	beq.n	2486 <__gnu_unwind_pr_common+0x1ce>
    23de:	9803      	ldr	r0, [sp, #12]
    23e0:	2800      	cmp	r0, #0
    23e2:	f040 80b2 	bne.w	254a <__gnu_unwind_pr_common+0x292>
    23e6:	9800      	ldr	r0, [sp, #0]
    23e8:	2800      	cmp	r0, #0
    23ea:	f000 80b1 	beq.w	2550 <__gnu_unwind_pr_common+0x298>
    23ee:	9b00      	ldr	r3, [sp, #0]
    23f0:	f105 0a04 	add.w	sl, r5, #4
    23f4:	07db      	lsls	r3, r3, #31
    23f6:	f8dd 900c 	ldr.w	r9, [sp, #12]
    23fa:	d410      	bmi.n	241e <__gnu_unwind_pr_common+0x166>
    23fc:	9902      	ldr	r1, [sp, #8]
    23fe:	4650      	mov	r0, sl
    2400:	9109      	str	r1, [sp, #36]	; 0x24
    2402:	f7ff fdc3 	bl	1f8c <_Unwind_decode_target2>
    2406:	9a03      	ldr	r2, [sp, #12]
    2408:	4601      	mov	r1, r0
    240a:	ab09      	add	r3, sp, #36	; 0x24
    240c:	4620      	mov	r0, r4
    240e:	f3af 8000 	nop.w
    2412:	2800      	cmp	r0, #0
    2414:	d133      	bne.n	247e <__gnu_unwind_pr_common+0x1c6>
    2416:	f10a 0a04 	add.w	sl, sl, #4
    241a:	f04f 0901 	mov.w	r9, #1
    241e:	f8cd 8010 	str.w	r8, [sp, #16]
    2422:	46ab      	mov	fp, r5
    2424:	46b8      	mov	r8, r7
    2426:	4650      	mov	r0, sl
    2428:	9605      	str	r6, [sp, #20]
    242a:	9f02      	ldr	r7, [sp, #8]
    242c:	e011      	b.n	2452 <__gnu_unwind_pr_common+0x19a>
    242e:	9900      	ldr	r1, [sp, #0]
    2430:	428e      	cmp	r6, r1
    2432:	f000 80c0 	beq.w	25b6 <__gnu_unwind_pr_common+0x2fe>
    2436:	9709      	str	r7, [sp, #36]	; 0x24
    2438:	f7ff fda8 	bl	1f8c <_Unwind_decode_target2>
    243c:	4652      	mov	r2, sl
    243e:	4601      	mov	r1, r0
    2440:	ab09      	add	r3, sp, #36	; 0x24
    2442:	4620      	mov	r0, r4
    2444:	f3af 8000 	nop.w
    2448:	46b1      	mov	r9, r6
    244a:	b998      	cbnz	r0, 2474 <__gnu_unwind_pr_common+0x1bc>
    244c:	1d28      	adds	r0, r5, #4
    244e:	f106 0901 	add.w	r9, r6, #1
    2452:	1d05      	adds	r5, r0, #4
    2454:	9709      	str	r7, [sp, #36]	; 0x24
    2456:	f7ff fd99 	bl	1f8c <_Unwind_decode_target2>
    245a:	ab09      	add	r3, sp, #36	; 0x24
    245c:	4601      	mov	r1, r0
    245e:	2200      	movs	r2, #0
    2460:	4620      	mov	r0, r4
    2462:	f3af 8000 	nop.w
    2466:	4682      	mov	sl, r0
    2468:	f109 0601 	add.w	r6, r9, #1
    246c:	4628      	mov	r0, r5
    246e:	f1ba 0f00 	cmp.w	sl, #0
    2472:	d0dc      	beq.n	242e <__gnu_unwind_pr_common+0x176>
    2474:	4647      	mov	r7, r8
    2476:	9e05      	ldr	r6, [sp, #20]
    2478:	f8dd 8010 	ldr.w	r8, [sp, #16]
    247c:	465d      	mov	r5, fp
    247e:	9a00      	ldr	r2, [sp, #0]
    2480:	454a      	cmp	r2, r9
    2482:	d065      	beq.n	2550 <__gnu_unwind_pr_common+0x298>
    2484:	682b      	ldr	r3, [r5, #0]
    2486:	2b00      	cmp	r3, #0
    2488:	db7c      	blt.n	2584 <__gnu_unwind_pr_common+0x2cc>
    248a:	9900      	ldr	r1, [sp, #0]
    248c:	1c48      	adds	r0, r1, #1
    248e:	eb05 0580 	add.w	r5, r5, r0, lsl #2
    2492:	e737      	b.n	2304 <__gnu_unwind_pr_common+0x4c>
    2494:	f8d5 a004 	ldr.w	sl, [r5, #4]
    2498:	3508      	adds	r5, #8
    249a:	e741      	b.n	2320 <__gnu_unwind_pr_common+0x68>
    249c:	040b      	lsls	r3, r1, #16
    249e:	f3c1 4007 	ubfx	r0, r1, #16, #8
    24a2:	6d21      	ldr	r1, [r4, #80]	; 0x50
    24a4:	2202      	movs	r2, #2
    24a6:	f1b8 0f02 	cmp.w	r8, #2
    24aa:	9306      	str	r3, [sp, #24]
    24ac:	eb05 0580 	add.w	r5, r5, r0, lsl #2
    24b0:	bf08      	it	eq
    24b2:	6ba5      	ldreq	r5, [r4, #56]	; 0x38
    24b4:	f011 0301 	ands.w	r3, r1, #1
    24b8:	f88d 0021 	strb.w	r0, [sp, #33]	; 0x21
    24bc:	f88d 2020 	strb.w	r2, [sp, #32]
    24c0:	f43f af1c 	beq.w	22fc <__gnu_unwind_pr_common+0x44>
    24c4:	2000      	movs	r0, #0
    24c6:	9001      	str	r0, [sp, #4]
    24c8:	4638      	mov	r0, r7
    24ca:	a906      	add	r1, sp, #24
    24cc:	f000 fc04 	bl	2cd8 <__gnu_unwind_execute>
    24d0:	2800      	cmp	r0, #0
    24d2:	f47f af76 	bne.w	23c2 <__gnu_unwind_pr_common+0x10a>
    24d6:	9a01      	ldr	r2, [sp, #4]
    24d8:	2a00      	cmp	r2, #0
    24da:	d143      	bne.n	2564 <__gnu_unwind_pr_common+0x2ac>
    24dc:	2008      	movs	r0, #8
    24de:	e771      	b.n	23c4 <__gnu_unwind_pr_common+0x10c>
    24e0:	210d      	movs	r1, #13
    24e2:	4638      	mov	r0, r7
    24e4:	f8d4 9020 	ldr.w	r9, [r4, #32]
    24e8:	f7ff feb8 	bl	225c <_Unwind_GetGR>
    24ec:	4581      	cmp	r9, r0
    24ee:	d1c9      	bne.n	2484 <__gnu_unwind_pr_common+0x1cc>
    24f0:	6aa2      	ldr	r2, [r4, #40]	; 0x28
    24f2:	4295      	cmp	r5, r2
    24f4:	d1c6      	bne.n	2484 <__gnu_unwind_pr_common+0x1cc>
    24f6:	9800      	ldr	r0, [sp, #0]
    24f8:	1d29      	adds	r1, r5, #4
    24fa:	2200      	movs	r2, #0
    24fc:	2304      	movs	r3, #4
    24fe:	62a0      	str	r0, [r4, #40]	; 0x28
    2500:	62e2      	str	r2, [r4, #44]	; 0x2c
    2502:	6323      	str	r3, [r4, #48]	; 0x30
    2504:	6361      	str	r1, [r4, #52]	; 0x34
    2506:	6828      	ldr	r0, [r5, #0]
    2508:	2800      	cmp	r0, #0
    250a:	db57      	blt.n	25bc <__gnu_unwind_pr_common+0x304>
    250c:	2201      	movs	r2, #1
    250e:	9201      	str	r2, [sp, #4]
    2510:	e7bb      	b.n	248a <__gnu_unwind_pr_common+0x1d2>
    2512:	210d      	movs	r1, #13
    2514:	4638      	mov	r0, r7
    2516:	f8d4 9020 	ldr.w	r9, [r4, #32]
    251a:	f7ff fe9f 	bl	225c <_Unwind_GetGR>
    251e:	4581      	cmp	r9, r0
    2520:	f47f af4a 	bne.w	23b8 <__gnu_unwind_pr_common+0x100>
    2524:	6aa1      	ldr	r1, [r4, #40]	; 0x28
    2526:	428d      	cmp	r5, r1
    2528:	f47f af46 	bne.w	23b8 <__gnu_unwind_pr_common+0x100>
    252c:	4628      	mov	r0, r5
    252e:	f7ff fd33 	bl	1f98 <selfrel_offset31>
    2532:	210f      	movs	r1, #15
    2534:	4602      	mov	r2, r0
    2536:	4638      	mov	r0, r7
    2538:	f7ff feb0 	bl	229c <_Unwind_SetGR>
    253c:	4638      	mov	r0, r7
    253e:	2100      	movs	r1, #0
    2540:	4622      	mov	r2, r4
    2542:	f7ff feab 	bl	229c <_Unwind_SetGR>
    2546:	2007      	movs	r0, #7
    2548:	e73c      	b.n	23c4 <__gnu_unwind_pr_common+0x10c>
    254a:	9900      	ldr	r1, [sp, #0]
    254c:	2900      	cmp	r1, #0
    254e:	d19a      	bne.n	2486 <__gnu_unwind_pr_common+0x1ce>
    2550:	4638      	mov	r0, r7
    2552:	210d      	movs	r1, #13
    2554:	f7ff fe82 	bl	225c <_Unwind_GetGR>
    2558:	9b09      	ldr	r3, [sp, #36]	; 0x24
    255a:	6220      	str	r0, [r4, #32]
    255c:	6263      	str	r3, [r4, #36]	; 0x24
    255e:	62a5      	str	r5, [r4, #40]	; 0x28
    2560:	2006      	movs	r0, #6
    2562:	e72f      	b.n	23c4 <__gnu_unwind_pr_common+0x10c>
    2564:	210f      	movs	r1, #15
    2566:	4638      	mov	r0, r7
    2568:	f7ff fe78 	bl	225c <_Unwind_GetGR>
    256c:	210e      	movs	r1, #14
    256e:	4602      	mov	r2, r0
    2570:	4638      	mov	r0, r7
    2572:	f7ff fe93 	bl	229c <_Unwind_SetGR>
    2576:	4638      	mov	r0, r7
    2578:	210f      	movs	r1, #15
    257a:	4a13      	ldr	r2, [pc, #76]	; (25c8 <__gnu_unwind_pr_common+0x310>)
    257c:	f7ff fe8e 	bl	229c <_Unwind_SetGR>
    2580:	2007      	movs	r0, #7
    2582:	e71f      	b.n	23c4 <__gnu_unwind_pr_common+0x10c>
    2584:	3504      	adds	r5, #4
    2586:	e780      	b.n	248a <__gnu_unwind_pr_common+0x1d2>
    2588:	f8cd 8024 	str.w	r8, [sp, #36]	; 0x24
    258c:	3508      	adds	r5, #8
    258e:	e6b9      	b.n	2304 <__gnu_unwind_pr_common+0x4c>
    2590:	4628      	mov	r0, r5
    2592:	f7ff fd01 	bl	1f98 <selfrel_offset31>
    2596:	3504      	adds	r5, #4
    2598:	4606      	mov	r6, r0
    259a:	63a5      	str	r5, [r4, #56]	; 0x38
    259c:	4620      	mov	r0, r4
    259e:	f3af 8000 	nop.w
    25a2:	2800      	cmp	r0, #0
    25a4:	f43f af0d 	beq.w	23c2 <__gnu_unwind_pr_common+0x10a>
    25a8:	4638      	mov	r0, r7
    25aa:	210f      	movs	r1, #15
    25ac:	4632      	mov	r2, r6
    25ae:	f7ff fe75 	bl	229c <_Unwind_SetGR>
    25b2:	2007      	movs	r0, #7
    25b4:	e706      	b.n	23c4 <__gnu_unwind_pr_common+0x10c>
    25b6:	465d      	mov	r5, fp
    25b8:	4647      	mov	r7, r8
    25ba:	e7c9      	b.n	2550 <__gnu_unwind_pr_common+0x298>
    25bc:	9b00      	ldr	r3, [sp, #0]
    25be:	1c59      	adds	r1, r3, #1
    25c0:	eb05 0081 	add.w	r0, r5, r1, lsl #2
    25c4:	e7b3      	b.n	252e <__gnu_unwind_pr_common+0x276>
    25c6:	bf00      	nop
    25c8:	00000000 	.word	0x00000000

000025cc <__aeabi_unwind_cpp_pr2>:
    25cc:	2302      	movs	r3, #2
    25ce:	e673      	b.n	22b8 <__gnu_unwind_pr_common>

000025d0 <__aeabi_unwind_cpp_pr1>:
    25d0:	2301      	movs	r3, #1
    25d2:	e671      	b.n	22b8 <__gnu_unwind_pr_common>

000025d4 <__aeabi_unwind_cpp_pr0>:
    25d4:	2300      	movs	r3, #0
    25d6:	e66f      	b.n	22b8 <__gnu_unwind_pr_common>

000025d8 <_Unwind_VRS_Pop>:
    25d8:	e92d 47f0 	stmdb	sp!, {r4, r5, r6, r7, r8, r9, sl, lr}
    25dc:	4604      	mov	r4, r0
    25de:	b0e8      	sub	sp, #416	; 0x1a0
    25e0:	2904      	cmp	r1, #4
    25e2:	d80c      	bhi.n	25fe <_Unwind_VRS_Pop+0x26>
    25e4:	e8df f001 	tbb	[pc, r1]
    25e8:	94920339 	.word	0x94920339
    25ec:	0f          	.byte	0x0f
    25ed:	00          	.byte	0x00
    25ee:	0c15      	lsrs	r5, r2, #16
    25f0:	2b01      	cmp	r3, #1
    25f2:	b296      	uxth	r6, r2
    25f4:	f000 8178 	beq.w	28e8 <_Unwind_VRS_Pop+0x310>
    25f8:	2b05      	cmp	r3, #5
    25fa:	f000 80c8 	beq.w	278e <_Unwind_VRS_Pop+0x1b6>
    25fe:	2002      	movs	r0, #2
    2600:	b068      	add	sp, #416	; 0x1a0
    2602:	e8bd 87f0 	ldmia.w	sp!, {r4, r5, r6, r7, r8, r9, sl, pc}
    2606:	2b00      	cmp	r3, #0
    2608:	d1f9      	bne.n	25fe <_Unwind_VRS_Pop+0x26>
    260a:	2a10      	cmp	r2, #16
    260c:	d8f7      	bhi.n	25fe <_Unwind_VRS_Pop+0x26>
    260e:	6823      	ldr	r3, [r4, #0]
    2610:	06d9      	lsls	r1, r3, #27
    2612:	f100 8173 	bmi.w	28fc <_Unwind_VRS_Pop+0x324>
    2616:	a864      	add	r0, sp, #400	; 0x190
    2618:	9201      	str	r2, [sp, #4]
    261a:	f000 facf 	bl	2bbc <__gnu_Unwind_Save_WMMXC>
    261e:	9a01      	ldr	r2, [sp, #4]
    2620:	6ba3      	ldr	r3, [r4, #56]	; 0x38
    2622:	07d0      	lsls	r0, r2, #31
    2624:	bf44      	itt	mi
    2626:	f853 0b04 	ldrmi.w	r0, [r3], #4
    262a:	9064      	strmi	r0, [sp, #400]	; 0x190
    262c:	0791      	lsls	r1, r2, #30
    262e:	bf44      	itt	mi
    2630:	f853 1b04 	ldrmi.w	r1, [r3], #4
    2634:	9165      	strmi	r1, [sp, #404]	; 0x194
    2636:	0750      	lsls	r0, r2, #29
    2638:	bf48      	it	mi
    263a:	f853 1b04 	ldrmi.w	r1, [r3], #4
    263e:	a864      	add	r0, sp, #400	; 0x190
    2640:	bf48      	it	mi
    2642:	9166      	strmi	r1, [sp, #408]	; 0x198
    2644:	0711      	lsls	r1, r2, #28
    2646:	bf48      	it	mi
    2648:	f853 2b04 	ldrmi.w	r2, [r3], #4
    264c:	63a3      	str	r3, [r4, #56]	; 0x38
    264e:	bf48      	it	mi
    2650:	9267      	strmi	r2, [sp, #412]	; 0x19c
    2652:	f000 faa9 	bl	2ba8 <__gnu_Unwind_Restore_WMMXC>
    2656:	2000      	movs	r0, #0
    2658:	e7d2      	b.n	2600 <_Unwind_VRS_Pop+0x28>
    265a:	2b00      	cmp	r3, #0
    265c:	d1cf      	bne.n	25fe <_Unwind_VRS_Pop+0x26>
    265e:	6ba3      	ldr	r3, [r4, #56]	; 0x38
    2660:	07d0      	lsls	r0, r2, #31
    2662:	b291      	uxth	r1, r2
    2664:	bf44      	itt	mi
    2666:	f853 2b04 	ldrmi.w	r2, [r3], #4
    266a:	6062      	strmi	r2, [r4, #4]
    266c:	078a      	lsls	r2, r1, #30
    266e:	bf44      	itt	mi
    2670:	f853 2b04 	ldrmi.w	r2, [r3], #4
    2674:	60a2      	strmi	r2, [r4, #8]
    2676:	0748      	lsls	r0, r1, #29
    2678:	bf44      	itt	mi
    267a:	f853 2b04 	ldrmi.w	r2, [r3], #4
    267e:	60e2      	strmi	r2, [r4, #12]
    2680:	070a      	lsls	r2, r1, #28
    2682:	bf44      	itt	mi
    2684:	f853 2b04 	ldrmi.w	r2, [r3], #4
    2688:	6122      	strmi	r2, [r4, #16]
    268a:	06c8      	lsls	r0, r1, #27
    268c:	bf44      	itt	mi
    268e:	f853 2b04 	ldrmi.w	r2, [r3], #4
    2692:	6162      	strmi	r2, [r4, #20]
    2694:	068a      	lsls	r2, r1, #26
    2696:	bf44      	itt	mi
    2698:	f853 2b04 	ldrmi.w	r2, [r3], #4
    269c:	61a2      	strmi	r2, [r4, #24]
    269e:	0648      	lsls	r0, r1, #25
    26a0:	bf44      	itt	mi
    26a2:	f853 2b04 	ldrmi.w	r2, [r3], #4
    26a6:	61e2      	strmi	r2, [r4, #28]
    26a8:	060a      	lsls	r2, r1, #24
    26aa:	bf44      	itt	mi
    26ac:	f853 2b04 	ldrmi.w	r2, [r3], #4
    26b0:	6222      	strmi	r2, [r4, #32]
    26b2:	05c8      	lsls	r0, r1, #23
    26b4:	bf44      	itt	mi
    26b6:	f853 2b04 	ldrmi.w	r2, [r3], #4
    26ba:	6262      	strmi	r2, [r4, #36]	; 0x24
    26bc:	058a      	lsls	r2, r1, #22
    26be:	bf44      	itt	mi
    26c0:	f853 2b04 	ldrmi.w	r2, [r3], #4
    26c4:	62a2      	strmi	r2, [r4, #40]	; 0x28
    26c6:	0548      	lsls	r0, r1, #21
    26c8:	bf44      	itt	mi
    26ca:	f853 2b04 	ldrmi.w	r2, [r3], #4
    26ce:	62e2      	strmi	r2, [r4, #44]	; 0x2c
    26d0:	050a      	lsls	r2, r1, #20
    26d2:	bf44      	itt	mi
    26d4:	f853 2b04 	ldrmi.w	r2, [r3], #4
    26d8:	6322      	strmi	r2, [r4, #48]	; 0x30
    26da:	04c8      	lsls	r0, r1, #19
    26dc:	bf44      	itt	mi
    26de:	f853 2b04 	ldrmi.w	r2, [r3], #4
    26e2:	6362      	strmi	r2, [r4, #52]	; 0x34
    26e4:	f411 5000 	ands.w	r0, r1, #8192	; 0x2000
    26e8:	bf1c      	itt	ne
    26ea:	f853 2b04 	ldrne.w	r2, [r3], #4
    26ee:	63a2      	strne	r2, [r4, #56]	; 0x38
    26f0:	044a      	lsls	r2, r1, #17
    26f2:	bf44      	itt	mi
    26f4:	f853 2b04 	ldrmi.w	r2, [r3], #4
    26f8:	63e2      	strmi	r2, [r4, #60]	; 0x3c
    26fa:	040a      	lsls	r2, r1, #16
    26fc:	bf44      	itt	mi
    26fe:	f853 2b04 	ldrmi.w	r2, [r3], #4
    2702:	6422      	strmi	r2, [r4, #64]	; 0x40
    2704:	2800      	cmp	r0, #0
    2706:	d140      	bne.n	278a <_Unwind_VRS_Pop+0x1b2>
    2708:	63a3      	str	r3, [r4, #56]	; 0x38
    270a:	e779      	b.n	2600 <_Unwind_VRS_Pop+0x28>
    270c:	2001      	movs	r0, #1
    270e:	e777      	b.n	2600 <_Unwind_VRS_Pop+0x28>
    2710:	2b03      	cmp	r3, #3
    2712:	f47f af74 	bne.w	25fe <_Unwind_VRS_Pop+0x26>
    2716:	0c16      	lsrs	r6, r2, #16
    2718:	b295      	uxth	r5, r2
    271a:	19aa      	adds	r2, r5, r6
    271c:	2a10      	cmp	r2, #16
    271e:	f63f af6e 	bhi.w	25fe <_Unwind_VRS_Pop+0x26>
    2722:	6823      	ldr	r3, [r4, #0]
    2724:	0718      	lsls	r0, r3, #28
    2726:	f100 810a 	bmi.w	293e <_Unwind_VRS_Pop+0x366>
    272a:	a844      	add	r0, sp, #272	; 0x110
    272c:	f000 fa1a 	bl	2b64 <__gnu_Unwind_Save_WMMXD>
    2730:	6ba7      	ldr	r7, [r4, #56]	; 0x38
    2732:	ea4f 0e45 	mov.w	lr, r5, lsl #1
    2736:	463b      	mov	r3, r7
    2738:	b30d      	cbz	r5, 277e <_Unwind_VRS_Pop+0x1a6>
    273a:	f10e 3cff 	add.w	ip, lr, #4294967295
    273e:	a944      	add	r1, sp, #272	; 0x110
    2740:	f853 0b04 	ldr.w	r0, [r3], #4
    2744:	eb01 06c6 	add.w	r6, r1, r6, lsl #3
    2748:	4662      	mov	r2, ip
    274a:	f00c 0101 	and.w	r1, ip, #1
    274e:	f846 0b04 	str.w	r0, [r6], #4
    2752:	b192      	cbz	r2, 277a <_Unwind_VRS_Pop+0x1a2>
    2754:	b129      	cbz	r1, 2762 <_Unwind_VRS_Pop+0x18a>
    2756:	f853 1b04 	ldr.w	r1, [r3], #4
    275a:	3a01      	subs	r2, #1
    275c:	f846 1b04 	str.w	r1, [r6], #4
    2760:	d00b      	beq.n	277a <_Unwind_VRS_Pop+0x1a2>
    2762:	4618      	mov	r0, r3
    2764:	f850 5b04 	ldr.w	r5, [r0], #4
    2768:	4631      	mov	r1, r6
    276a:	f841 5b04 	str.w	r5, [r1], #4
    276e:	685d      	ldr	r5, [r3, #4]
    2770:	1d03      	adds	r3, r0, #4
    2772:	6075      	str	r5, [r6, #4]
    2774:	1d0e      	adds	r6, r1, #4
    2776:	3a02      	subs	r2, #2
    2778:	d1f3      	bne.n	2762 <_Unwind_VRS_Pop+0x18a>
    277a:	eb07 038e 	add.w	r3, r7, lr, lsl #2
    277e:	a844      	add	r0, sp, #272	; 0x110
    2780:	63a3      	str	r3, [r4, #56]	; 0x38
    2782:	f000 f9cd 	bl	2b20 <__gnu_Unwind_Restore_WMMXD>
    2786:	2000      	movs	r0, #0
    2788:	e73a      	b.n	2600 <_Unwind_VRS_Pop+0x28>
    278a:	2000      	movs	r0, #0
    278c:	e738      	b.n	2600 <_Unwind_VRS_Pop+0x28>
    278e:	1977      	adds	r7, r6, r5
    2790:	2220      	movs	r2, #32
    2792:	42ba      	cmp	r2, r7
    2794:	f4ff af33 	bcc.w	25fe <_Unwind_VRS_Pop+0x26>
    2798:	2b01      	cmp	r3, #1
    279a:	f000 80a8 	beq.w	28ee <_Unwind_VRS_Pop+0x316>
    279e:	2d0f      	cmp	r5, #15
    27a0:	f240 80a8 	bls.w	28f4 <_Unwind_VRS_Pop+0x31c>
    27a4:	4637      	mov	r7, r6
    27a6:	b1f6      	cbz	r6, 27e6 <_Unwind_VRS_Pop+0x20e>
    27a8:	2b05      	cmp	r3, #5
    27aa:	f47f af28 	bne.w	25fe <_Unwind_VRS_Pop+0x26>
    27ae:	2d0f      	cmp	r5, #15
    27b0:	d811      	bhi.n	27d6 <_Unwind_VRS_Pop+0x1fe>
    27b2:	6822      	ldr	r2, [r4, #0]
    27b4:	07d0      	lsls	r0, r2, #31
    27b6:	d50e      	bpl.n	27d6 <_Unwind_VRS_Pop+0x1fe>
    27b8:	f022 0101 	bic.w	r1, r2, #1
    27bc:	2b05      	cmp	r3, #5
    27be:	6021      	str	r1, [r4, #0]
    27c0:	f000 80da 	beq.w	2978 <_Unwind_VRS_Pop+0x3a0>
    27c4:	f022 0203 	bic.w	r2, r2, #3
    27c8:	4620      	mov	r0, r4
    27ca:	f840 2b48 	str.w	r2, [r0], #72
    27ce:	9301      	str	r3, [sp, #4]
    27d0:	f000 f992 	bl	2af8 <__gnu_Unwind_Save_VFP>
    27d4:	9b01      	ldr	r3, [sp, #4]
    27d6:	b11f      	cbz	r7, 27e0 <_Unwind_VRS_Pop+0x208>
    27d8:	6822      	ldr	r2, [r4, #0]
    27da:	0751      	lsls	r1, r2, #29
    27dc:	f100 80b7 	bmi.w	294e <_Unwind_VRS_Pop+0x376>
    27e0:	2b01      	cmp	r3, #1
    27e2:	f000 80be 	beq.w	2962 <_Unwind_VRS_Pop+0x38a>
    27e6:	2d0f      	cmp	r5, #15
    27e8:	d974      	bls.n	28d4 <_Unwind_VRS_Pop+0x2fc>
    27ea:	2f00      	cmp	r7, #0
    27ec:	f040 809f 	bne.w	292e <_Unwind_VRS_Pop+0x356>
    27f0:	f8d4 9038 	ldr.w	r9, [r4, #56]	; 0x38
    27f4:	2e00      	cmp	r6, #0
    27f6:	46c8      	mov	r8, r9
    27f8:	dd2e      	ble.n	2858 <_Unwind_VRS_Pop+0x280>
    27fa:	4649      	mov	r1, r9
    27fc:	ea4f 0846 	mov.w	r8, r6, lsl #1
    2800:	f10d 0c08 	add.w	ip, sp, #8
    2804:	f851 6b04 	ldr.w	r6, [r1], #4
    2808:	eb0c 02c5 	add.w	r2, ip, r5, lsl #3
    280c:	f108 30ff 	add.w	r0, r8, #4294967295
    2810:	f000 0a01 	and.w	sl, r0, #1
    2814:	f842 6b04 	str.w	r6, [r2], #4
    2818:	f1a8 0c02 	sub.w	ip, r8, #2
    281c:	b1d0      	cbz	r0, 2854 <_Unwind_VRS_Pop+0x27c>
    281e:	f1ba 0f00 	cmp.w	sl, #0
    2822:	d008      	beq.n	2836 <_Unwind_VRS_Pop+0x25e>
    2824:	f851 0b04 	ldr.w	r0, [r1], #4
    2828:	f10c 3cff 	add.w	ip, ip, #4294967295
    282c:	f1bc 3fff 	cmp.w	ip, #4294967295
    2830:	f842 0b04 	str.w	r0, [r2], #4
    2834:	d00e      	beq.n	2854 <_Unwind_VRS_Pop+0x27c>
    2836:	460e      	mov	r6, r1
    2838:	f856 ab04 	ldr.w	sl, [r6], #4
    283c:	4610      	mov	r0, r2
    283e:	f840 ab04 	str.w	sl, [r0], #4
    2842:	6849      	ldr	r1, [r1, #4]
    2844:	f1ac 0c02 	sub.w	ip, ip, #2
    2848:	6051      	str	r1, [r2, #4]
    284a:	1d31      	adds	r1, r6, #4
    284c:	1d02      	adds	r2, r0, #4
    284e:	f1bc 3fff 	cmp.w	ip, #4294967295
    2852:	d1f0      	bne.n	2836 <_Unwind_VRS_Pop+0x25e>
    2854:	eb09 0888 	add.w	r8, r9, r8, lsl #2
    2858:	b39f      	cbz	r7, 28c2 <_Unwind_VRS_Pop+0x2ea>
    285a:	2d10      	cmp	r5, #16
    285c:	bf2c      	ite	cs
    285e:	462e      	movcs	r6, r5
    2860:	2610      	movcc	r6, #16
    2862:	aa68      	add	r2, sp, #416	; 0x1a0
    2864:	4641      	mov	r1, r8
    2866:	eb02 0ac6 	add.w	sl, r2, r6, lsl #3
    286a:	ea4f 0947 	mov.w	r9, r7, lsl #1
    286e:	f851 6b04 	ldr.w	r6, [r1], #4
    2872:	f5aa 72c8 	sub.w	r2, sl, #400	; 0x190
    2876:	f109 30ff 	add.w	r0, r9, #4294967295
    287a:	f000 0a01 	and.w	sl, r0, #1
    287e:	f842 6b04 	str.w	r6, [r2], #4
    2882:	f1a9 0c02 	sub.w	ip, r9, #2
    2886:	b1d0      	cbz	r0, 28be <_Unwind_VRS_Pop+0x2e6>
    2888:	f1ba 0f00 	cmp.w	sl, #0
    288c:	d008      	beq.n	28a0 <_Unwind_VRS_Pop+0x2c8>
    288e:	f851 0b04 	ldr.w	r0, [r1], #4
    2892:	f10c 3cff 	add.w	ip, ip, #4294967295
    2896:	f1bc 3fff 	cmp.w	ip, #4294967295
    289a:	f842 0b04 	str.w	r0, [r2], #4
    289e:	d00e      	beq.n	28be <_Unwind_VRS_Pop+0x2e6>
    28a0:	460e      	mov	r6, r1
    28a2:	f856 ab04 	ldr.w	sl, [r6], #4
    28a6:	4610      	mov	r0, r2
    28a8:	f840 ab04 	str.w	sl, [r0], #4
    28ac:	6849      	ldr	r1, [r1, #4]
    28ae:	f1ac 0c02 	sub.w	ip, ip, #2
    28b2:	6051      	str	r1, [r2, #4]
    28b4:	1d31      	adds	r1, r6, #4
    28b6:	1d02      	adds	r2, r0, #4
    28b8:	f1bc 3fff 	cmp.w	ip, #4294967295
    28bc:	d1f0      	bne.n	28a0 <_Unwind_VRS_Pop+0x2c8>
    28be:	eb08 0889 	add.w	r8, r8, r9, lsl #2
    28c2:	2b01      	cmp	r3, #1
    28c4:	d02b      	beq.n	291e <_Unwind_VRS_Pop+0x346>
    28c6:	2d0f      	cmp	r5, #15
    28c8:	f8c4 8038 	str.w	r8, [r4, #56]	; 0x38
    28cc:	d908      	bls.n	28e0 <_Unwind_VRS_Pop+0x308>
    28ce:	b9ff      	cbnz	r7, 2910 <_Unwind_VRS_Pop+0x338>
    28d0:	4638      	mov	r0, r7
    28d2:	e695      	b.n	2600 <_Unwind_VRS_Pop+0x28>
    28d4:	a802      	add	r0, sp, #8
    28d6:	9301      	str	r3, [sp, #4]
    28d8:	f000 f916 	bl	2b08 <__gnu_Unwind_Save_VFP_D>
    28dc:	9b01      	ldr	r3, [sp, #4]
    28de:	e784      	b.n	27ea <_Unwind_VRS_Pop+0x212>
    28e0:	a802      	add	r0, sp, #8
    28e2:	f000 f90d 	bl	2b00 <__gnu_Unwind_Restore_VFP_D>
    28e6:	e7f2      	b.n	28ce <_Unwind_VRS_Pop+0x2f6>
    28e8:	1977      	adds	r7, r6, r5
    28ea:	2210      	movs	r2, #16
    28ec:	e751      	b.n	2792 <_Unwind_VRS_Pop+0x1ba>
    28ee:	2d0f      	cmp	r5, #15
    28f0:	f63f ae85 	bhi.w	25fe <_Unwind_VRS_Pop+0x26>
    28f4:	2f10      	cmp	r7, #16
    28f6:	d910      	bls.n	291a <_Unwind_VRS_Pop+0x342>
    28f8:	3f10      	subs	r7, #16
    28fa:	e755      	b.n	27a8 <_Unwind_VRS_Pop+0x1d0>
    28fc:	f023 0310 	bic.w	r3, r3, #16
    2900:	6023      	str	r3, [r4, #0]
    2902:	f504 700c 	add.w	r0, r4, #560	; 0x230
    2906:	9201      	str	r2, [sp, #4]
    2908:	f000 f958 	bl	2bbc <__gnu_Unwind_Save_WMMXC>
    290c:	9a01      	ldr	r2, [sp, #4]
    290e:	e682      	b.n	2616 <_Unwind_VRS_Pop+0x3e>
    2910:	a824      	add	r0, sp, #144	; 0x90
    2912:	f000 f8fd 	bl	2b10 <__gnu_Unwind_Restore_VFP_D_16_to_31>
    2916:	2000      	movs	r0, #0
    2918:	e672      	b.n	2600 <_Unwind_VRS_Pop+0x28>
    291a:	2700      	movs	r7, #0
    291c:	e747      	b.n	27ae <_Unwind_VRS_Pop+0x1d6>
    291e:	f108 0304 	add.w	r3, r8, #4
    2922:	a802      	add	r0, sp, #8
    2924:	63a3      	str	r3, [r4, #56]	; 0x38
    2926:	f000 f8e3 	bl	2af0 <__gnu_Unwind_Restore_VFP>
    292a:	2000      	movs	r0, #0
    292c:	e668      	b.n	2600 <_Unwind_VRS_Pop+0x28>
    292e:	a824      	add	r0, sp, #144	; 0x90
    2930:	9301      	str	r3, [sp, #4]
    2932:	f1c5 0610 	rsb	r6, r5, #16
    2936:	f000 f8ef 	bl	2b18 <__gnu_Unwind_Save_VFP_D_16_to_31>
    293a:	9b01      	ldr	r3, [sp, #4]
    293c:	e758      	b.n	27f0 <_Unwind_VRS_Pop+0x218>
    293e:	f023 0708 	bic.w	r7, r3, #8
    2942:	f504 70d8 	add.w	r0, r4, #432	; 0x1b0
    2946:	6027      	str	r7, [r4, #0]
    2948:	f000 f90c 	bl	2b64 <__gnu_Unwind_Save_WMMXD>
    294c:	e6ed      	b.n	272a <_Unwind_VRS_Pop+0x152>
    294e:	f022 0104 	bic.w	r1, r2, #4
    2952:	4620      	mov	r0, r4
    2954:	f840 1bd0 	str.w	r1, [r0], #208
    2958:	9301      	str	r3, [sp, #4]
    295a:	f000 f8dd 	bl	2b18 <__gnu_Unwind_Save_VFP_D_16_to_31>
    295e:	9b01      	ldr	r3, [sp, #4]
    2960:	e73e      	b.n	27e0 <_Unwind_VRS_Pop+0x208>
    2962:	a802      	add	r0, sp, #8
    2964:	9301      	str	r3, [sp, #4]
    2966:	f000 f8c7 	bl	2af8 <__gnu_Unwind_Save_VFP>
    296a:	9b01      	ldr	r3, [sp, #4]
    296c:	2f00      	cmp	r7, #0
    296e:	f43f af3f 	beq.w	27f0 <_Unwind_VRS_Pop+0x218>
    2972:	f1c5 0610 	rsb	r6, r5, #16
    2976:	e73b      	b.n	27f0 <_Unwind_VRS_Pop+0x218>
    2978:	f041 0102 	orr.w	r1, r1, #2
    297c:	4620      	mov	r0, r4
    297e:	f840 1b48 	str.w	r1, [r0], #72
    2982:	9301      	str	r3, [sp, #4]
    2984:	f000 f8c0 	bl	2b08 <__gnu_Unwind_Save_VFP_D>
    2988:	9b01      	ldr	r3, [sp, #4]
    298a:	e724      	b.n	27d6 <_Unwind_VRS_Pop+0x1fe>

0000298c <_Unwind_GetCFA>:
    298c:	6c40      	ldr	r0, [r0, #68]	; 0x44
    298e:	4770      	bx	lr

00002990 <__gnu_Unwind_RaiseException>:
    2990:	b5f0      	push	{r4, r5, r6, r7, lr}
    2992:	460d      	mov	r5, r1
    2994:	6bc9      	ldr	r1, [r1, #60]	; 0x3c
    2996:	f5ad 7d11 	sub.w	sp, sp, #580	; 0x244
    299a:	6429      	str	r1, [r5, #64]	; 0x40
    299c:	ae01      	add	r6, sp, #4
    299e:	1d2f      	adds	r7, r5, #4
    29a0:	4604      	mov	r4, r0
    29a2:	cf0f      	ldmia	r7!, {r0, r1, r2, r3}
    29a4:	c60f      	stmia	r6!, {r0, r1, r2, r3}
    29a6:	cf0f      	ldmia	r7!, {r0, r1, r2, r3}
    29a8:	c60f      	stmia	r6!, {r0, r1, r2, r3}
    29aa:	cf0f      	ldmia	r7!, {r0, r1, r2, r3}
    29ac:	c60f      	stmia	r6!, {r0, r1, r2, r3}
    29ae:	e897 000f 	ldmia.w	r7, {r0, r1, r2, r3}
    29b2:	e886 000f 	stmia.w	r6, {r0, r1, r2, r3}
    29b6:	f04f 33ff 	mov.w	r3, #4294967295
    29ba:	9300      	str	r3, [sp, #0]
    29bc:	9910      	ldr	r1, [sp, #64]	; 0x40
    29be:	4620      	mov	r0, r4
    29c0:	f7ff fb26 	bl	2010 <get_eit_entry>
    29c4:	b958      	cbnz	r0, 29de <__gnu_Unwind_RaiseException+0x4e>
    29c6:	6926      	ldr	r6, [r4, #16]
    29c8:	4621      	mov	r1, r4
    29ca:	466a      	mov	r2, sp
    29cc:	47b0      	blx	r6
    29ce:	2808      	cmp	r0, #8
    29d0:	4606      	mov	r6, r0
    29d2:	d0f3      	beq.n	29bc <__gnu_Unwind_RaiseException+0x2c>
    29d4:	4668      	mov	r0, sp
    29d6:	f7ff fb7f 	bl	20d8 <restore_non_core_regs>
    29da:	2e06      	cmp	r6, #6
    29dc:	d003      	beq.n	29e6 <__gnu_Unwind_RaiseException+0x56>
    29de:	2009      	movs	r0, #9
    29e0:	f50d 7d11 	add.w	sp, sp, #580	; 0x244
    29e4:	bdf0      	pop	{r4, r5, r6, r7, pc}
    29e6:	4620      	mov	r0, r4
    29e8:	4629      	mov	r1, r5
    29ea:	f7ff fc0b 	bl	2204 <unwind_phase2>
    29ee:	bf00      	nop

000029f0 <__gnu_Unwind_ForcedUnwind>:
    29f0:	b410      	push	{r4}
    29f2:	6bdc      	ldr	r4, [r3, #60]	; 0x3c
    29f4:	60c1      	str	r1, [r0, #12]
    29f6:	6182      	str	r2, [r0, #24]
    29f8:	4619      	mov	r1, r3
    29fa:	2200      	movs	r2, #0
    29fc:	641c      	str	r4, [r3, #64]	; 0x40
    29fe:	bc10      	pop	{r4}
    2a00:	f7ff bb96 	b.w	2130 <unwind_phase2_forced>

00002a04 <__gnu_Unwind_Resume>:
    2a04:	b538      	push	{r3, r4, r5, lr}
    2a06:	6942      	ldr	r2, [r0, #20]
    2a08:	68c3      	ldr	r3, [r0, #12]
    2a0a:	4604      	mov	r4, r0
    2a0c:	460d      	mov	r5, r1
    2a0e:	640a      	str	r2, [r1, #64]	; 0x40
    2a10:	b123      	cbz	r3, 2a1c <__gnu_Unwind_Resume+0x18>
    2a12:	2201      	movs	r2, #1
    2a14:	f7ff fb8c 	bl	2130 <unwind_phase2_forced>
    2a18:	f7ff f9f0 	bl	1dfc <abort>
    2a1c:	6903      	ldr	r3, [r0, #16]
    2a1e:	4621      	mov	r1, r4
    2a20:	2002      	movs	r0, #2
    2a22:	462a      	mov	r2, r5
    2a24:	4798      	blx	r3
    2a26:	2807      	cmp	r0, #7
    2a28:	d003      	beq.n	2a32 <__gnu_Unwind_Resume+0x2e>
    2a2a:	2808      	cmp	r0, #8
    2a2c:	d004      	beq.n	2a38 <__gnu_Unwind_Resume+0x34>
    2a2e:	f7ff f9e5 	bl	1dfc <abort>
    2a32:	1d28      	adds	r0, r5, #4
    2a34:	f000 f850 	bl	2ad8 <__restore_core_regs>
    2a38:	4620      	mov	r0, r4
    2a3a:	4629      	mov	r1, r5
    2a3c:	f7ff fbe2 	bl	2204 <unwind_phase2>

00002a40 <__gnu_Unwind_Resume_or_Rethrow>:
    2a40:	68c3      	ldr	r3, [r0, #12]
    2a42:	b123      	cbz	r3, 2a4e <__gnu_Unwind_Resume_or_Rethrow+0xe>
    2a44:	6bca      	ldr	r2, [r1, #60]	; 0x3c
    2a46:	640a      	str	r2, [r1, #64]	; 0x40
    2a48:	2200      	movs	r2, #0
    2a4a:	f7ff bb71 	b.w	2130 <unwind_phase2_forced>
    2a4e:	e79f      	b.n	2990 <__gnu_Unwind_RaiseException>

00002a50 <_Unwind_Complete>:
    2a50:	4770      	bx	lr
    2a52:	bf00      	nop

00002a54 <_Unwind_DeleteException>:
    2a54:	b508      	push	{r3, lr}
    2a56:	6883      	ldr	r3, [r0, #8]
    2a58:	4601      	mov	r1, r0
    2a5a:	b10b      	cbz	r3, 2a60 <_Unwind_DeleteException+0xc>
    2a5c:	2001      	movs	r0, #1
    2a5e:	4798      	blx	r3
    2a60:	bd08      	pop	{r3, pc}
    2a62:	bf00      	nop

00002a64 <__gnu_Unwind_Backtrace>:
    2a64:	b5f0      	push	{r4, r5, r6, r7, lr}
    2a66:	6bd4      	ldr	r4, [r2, #60]	; 0x3c
    2a68:	f5ad 7d27 	sub.w	sp, sp, #668	; 0x29c
    2a6c:	6414      	str	r4, [r2, #64]	; 0x40
    2a6e:	ae01      	add	r6, sp, #4
    2a70:	1d17      	adds	r7, r2, #4
    2a72:	4605      	mov	r5, r0
    2a74:	460c      	mov	r4, r1
    2a76:	cf0f      	ldmia	r7!, {r0, r1, r2, r3}
    2a78:	c60f      	stmia	r6!, {r0, r1, r2, r3}
    2a7a:	cf0f      	ldmia	r7!, {r0, r1, r2, r3}
    2a7c:	c60f      	stmia	r6!, {r0, r1, r2, r3}
    2a7e:	cf0f      	ldmia	r7!, {r0, r1, r2, r3}
    2a80:	c60f      	stmia	r6!, {r0, r1, r2, r3}
    2a82:	e897 000f 	ldmia.w	r7, {r0, r1, r2, r3}
    2a86:	e886 000f 	stmia.w	r6, {r0, r1, r2, r3}
    2a8a:	f04f 33ff 	mov.w	r3, #4294967295
    2a8e:	9300      	str	r3, [sp, #0]
    2a90:	9910      	ldr	r1, [sp, #64]	; 0x40
    2a92:	a890      	add	r0, sp, #576	; 0x240
    2a94:	f7ff fabc 	bl	2010 <get_eit_entry>
    2a98:	4603      	mov	r3, r0
    2a9a:	aa90      	add	r2, sp, #576	; 0x240
    2a9c:	4668      	mov	r0, sp
    2a9e:	210c      	movs	r1, #12
    2aa0:	b9bb      	cbnz	r3, 2ad2 <__gnu_Unwind_Backtrace+0x6e>
    2aa2:	f7ff fbfb 	bl	229c <_Unwind_SetGR>
    2aa6:	4621      	mov	r1, r4
    2aa8:	4668      	mov	r0, sp
    2aaa:	47a8      	blx	r5
    2aac:	4606      	mov	r6, r0
    2aae:	a990      	add	r1, sp, #576	; 0x240
    2ab0:	2008      	movs	r0, #8
    2ab2:	466a      	mov	r2, sp
    2ab4:	b96e      	cbnz	r6, 2ad2 <__gnu_Unwind_Backtrace+0x6e>
    2ab6:	9b94      	ldr	r3, [sp, #592]	; 0x250
    2ab8:	4798      	blx	r3
    2aba:	2805      	cmp	r0, #5
    2abc:	4606      	mov	r6, r0
    2abe:	d001      	beq.n	2ac4 <__gnu_Unwind_Backtrace+0x60>
    2ac0:	2809      	cmp	r0, #9
    2ac2:	d1e5      	bne.n	2a90 <__gnu_Unwind_Backtrace+0x2c>
    2ac4:	4668      	mov	r0, sp
    2ac6:	f7ff fb07 	bl	20d8 <restore_non_core_regs>
    2aca:	4630      	mov	r0, r6
    2acc:	f50d 7d27 	add.w	sp, sp, #668	; 0x29c
    2ad0:	bdf0      	pop	{r4, r5, r6, r7, pc}
    2ad2:	2609      	movs	r6, #9
    2ad4:	e7f6      	b.n	2ac4 <__gnu_Unwind_Backtrace+0x60>
    2ad6:	bf00      	nop

00002ad8 <__restore_core_regs>:
    2ad8:	f100 0134 	add.w	r1, r0, #52	; 0x34
    2adc:	e891 0038 	ldmia.w	r1, {r3, r4, r5}
    2ae0:	469c      	mov	ip, r3
    2ae2:	46a6      	mov	lr, r4
    2ae4:	f84c 5d04 	str.w	r5, [ip, #-4]!
    2ae8:	e890 0fff 	ldmia.w	r0, {r0, r1, r2, r3, r4, r5, r6, r7, r8, r9, sl, fp}
    2aec:	46e5      	mov	sp, ip
    2aee:	bd00      	pop	{pc}

00002af0 <__gnu_Unwind_Restore_VFP>:
    2af0:	ec90 0b21 	fldmiax	r0, {d0-d15}	;@ Deprecated
    2af4:	4770      	bx	lr
    2af6:	bf00      	nop

00002af8 <__gnu_Unwind_Save_VFP>:
    2af8:	ec80 0b21 	fstmiax	r0, {d0-d15}	;@ Deprecated
    2afc:	4770      	bx	lr
    2afe:	bf00      	nop

00002b00 <__gnu_Unwind_Restore_VFP_D>:
    2b00:	ec90 0b20 	vldmia	r0, {d0-d15}
    2b04:	4770      	bx	lr
    2b06:	bf00      	nop

00002b08 <__gnu_Unwind_Save_VFP_D>:
    2b08:	ec80 0b20 	vstmia	r0, {d0-d15}
    2b0c:	4770      	bx	lr
    2b0e:	bf00      	nop

00002b10 <__gnu_Unwind_Restore_VFP_D_16_to_31>:
    2b10:	ecd0 0b20 	vldmia	r0, {d16-d31}
    2b14:	4770      	bx	lr
    2b16:	bf00      	nop

00002b18 <__gnu_Unwind_Save_VFP_D_16_to_31>:
    2b18:	ecc0 0b20 	vstmia	r0, {d16-d31}
    2b1c:	4770      	bx	lr
    2b1e:	bf00      	nop

00002b20 <__gnu_Unwind_Restore_WMMXD>:
    2b20:	ecf0 0102 	ldfe	f0, [r0], #8
    2b24:	ecf0 1102 	ldfe	f1, [r0], #8
    2b28:	ecf0 2102 	ldfe	f2, [r0], #8
    2b2c:	ecf0 3102 	ldfe	f3, [r0], #8
    2b30:	ecf0 4102 	ldfe	f4, [r0], #8
    2b34:	ecf0 5102 	ldfe	f5, [r0], #8
    2b38:	ecf0 6102 	ldfe	f6, [r0], #8
    2b3c:	ecf0 7102 	ldfe	f7, [r0], #8
    2b40:	ecf0 8102 	ldfp	f0, [r0], #8
    2b44:	ecf0 9102 	ldfp	f1, [r0], #8
    2b48:	ecf0 a102 	ldfp	f2, [r0], #8
    2b4c:	ecf0 b102 	ldfp	f3, [r0], #8
    2b50:	ecf0 c102 	ldfp	f4, [r0], #8
    2b54:	ecf0 d102 	ldfp	f5, [r0], #8
    2b58:	ecf0 e102 	ldfp	f6, [r0], #8
    2b5c:	ecf0 f102 	ldfp	f7, [r0], #8
    2b60:	4770      	bx	lr
    2b62:	bf00      	nop

00002b64 <__gnu_Unwind_Save_WMMXD>:
    2b64:	ece0 0102 	stfe	f0, [r0], #8
    2b68:	ece0 1102 	stfe	f1, [r0], #8
    2b6c:	ece0 2102 	stfe	f2, [r0], #8
    2b70:	ece0 3102 	stfe	f3, [r0], #8
    2b74:	ece0 4102 	stfe	f4, [r0], #8
    2b78:	ece0 5102 	stfe	f5, [r0], #8
    2b7c:	ece0 6102 	stfe	f6, [r0], #8
    2b80:	ece0 7102 	stfe	f7, [r0], #8
    2b84:	ece0 8102 	stfp	f0, [r0], #8
    2b88:	ece0 9102 	stfp	f1, [r0], #8
    2b8c:	ece0 a102 	stfp	f2, [r0], #8
    2b90:	ece0 b102 	stfp	f3, [r0], #8
    2b94:	ece0 c102 	stfp	f4, [r0], #8
    2b98:	ece0 d102 	stfp	f5, [r0], #8
    2b9c:	ece0 e102 	stfp	f6, [r0], #8
    2ba0:	ece0 f102 	stfp	f7, [r0], #8
    2ba4:	4770      	bx	lr
    2ba6:	bf00      	nop

00002ba8 <__gnu_Unwind_Restore_WMMXC>:
    2ba8:	fcb0 8101 	ldc2	1, cr8, [r0], #4
    2bac:	fcb0 9101 	ldc2	1, cr9, [r0], #4
    2bb0:	fcb0 a101 	ldc2	1, cr10, [r0], #4
    2bb4:	fcb0 b101 	ldc2	1, cr11, [r0], #4
    2bb8:	4770      	bx	lr
    2bba:	bf00      	nop

00002bbc <__gnu_Unwind_Save_WMMXC>:
    2bbc:	fca0 8101 	stc2	1, cr8, [r0], #4
    2bc0:	fca0 9101 	stc2	1, cr9, [r0], #4
    2bc4:	fca0 a101 	stc2	1, cr10, [r0], #4
    2bc8:	fca0 b101 	stc2	1, cr11, [r0], #4
    2bcc:	4770      	bx	lr
    2bce:	bf00      	nop

00002bd0 <_Unwind_RaiseException>:
    2bd0:	46ec      	mov	ip, sp
    2bd2:	b500      	push	{lr}
    2bd4:	e92d 5000 	stmdb	sp!, {ip, lr}
    2bd8:	e92d 1fff 	stmdb	sp!, {r0, r1, r2, r3, r4, r5, r6, r7, r8, r9, sl, fp, ip}
    2bdc:	f04f 0300 	mov.w	r3, #0
    2be0:	e92d 000c 	stmdb	sp!, {r2, r3}
    2be4:	a901      	add	r1, sp, #4
    2be6:	f7ff fed3 	bl	2990 <__gnu_Unwind_RaiseException>
    2bea:	f8dd e040 	ldr.w	lr, [sp, #64]	; 0x40
    2bee:	b012      	add	sp, #72	; 0x48
    2bf0:	4770      	bx	lr
    2bf2:	bf00      	nop

00002bf4 <_Unwind_Resume>:
    2bf4:	46ec      	mov	ip, sp
    2bf6:	b500      	push	{lr}
    2bf8:	e92d 5000 	stmdb	sp!, {ip, lr}
    2bfc:	e92d 1fff 	stmdb	sp!, {r0, r1, r2, r3, r4, r5, r6, r7, r8, r9, sl, fp, ip}
    2c00:	f04f 0300 	mov.w	r3, #0
    2c04:	e92d 000c 	stmdb	sp!, {r2, r3}
    2c08:	a901      	add	r1, sp, #4
    2c0a:	f7ff fefb 	bl	2a04 <__gnu_Unwind_Resume>
    2c0e:	f8dd e040 	ldr.w	lr, [sp, #64]	; 0x40
    2c12:	b012      	add	sp, #72	; 0x48
    2c14:	4770      	bx	lr
    2c16:	bf00      	nop

00002c18 <_Unwind_Resume_or_Rethrow>:
    2c18:	46ec      	mov	ip, sp
    2c1a:	b500      	push	{lr}
    2c1c:	e92d 5000 	stmdb	sp!, {ip, lr}
    2c20:	e92d 1fff 	stmdb	sp!, {r0, r1, r2, r3, r4, r5, r6, r7, r8, r9, sl, fp, ip}
    2c24:	f04f 0300 	mov.w	r3, #0
    2c28:	e92d 000c 	stmdb	sp!, {r2, r3}
    2c2c:	a901      	add	r1, sp, #4
    2c2e:	f7ff ff07 	bl	2a40 <__gnu_Unwind_Resume_or_Rethrow>
    2c32:	f8dd e040 	ldr.w	lr, [sp, #64]	; 0x40
    2c36:	b012      	add	sp, #72	; 0x48
    2c38:	4770      	bx	lr
    2c3a:	bf00      	nop

00002c3c <_Unwind_ForcedUnwind>:
    2c3c:	46ec      	mov	ip, sp
    2c3e:	b500      	push	{lr}
    2c40:	e92d 5000 	stmdb	sp!, {ip, lr}
    2c44:	e92d 1fff 	stmdb	sp!, {r0, r1, r2, r3, r4, r5, r6, r7, r8, r9, sl, fp, ip}
    2c48:	f04f 0300 	mov.w	r3, #0
    2c4c:	e92d 000c 	stmdb	sp!, {r2, r3}
    2c50:	ab01      	add	r3, sp, #4
    2c52:	f7ff fecd 	bl	29f0 <__gnu_Unwind_ForcedUnwind>
    2c56:	f8dd e040 	ldr.w	lr, [sp, #64]	; 0x40
    2c5a:	b012      	add	sp, #72	; 0x48
    2c5c:	4770      	bx	lr
    2c5e:	bf00      	nop

00002c60 <_Unwind_Backtrace>:
    2c60:	46ec      	mov	ip, sp
    2c62:	b500      	push	{lr}
    2c64:	e92d 5000 	stmdb	sp!, {ip, lr}
    2c68:	e92d 1fff 	stmdb	sp!, {r0, r1, r2, r3, r4, r5, r6, r7, r8, r9, sl, fp, ip}
    2c6c:	f04f 0300 	mov.w	r3, #0
    2c70:	e92d 000c 	stmdb	sp!, {r2, r3}
    2c74:	aa01      	add	r2, sp, #4
    2c76:	f7ff fef5 	bl	2a64 <__gnu_Unwind_Backtrace>
    2c7a:	f8dd e040 	ldr.w	lr, [sp, #64]	; 0x40
    2c7e:	b012      	add	sp, #72	; 0x48
    2c80:	4770      	bx	lr
    2c82:	bf00      	nop

00002c84 <next_unwind_byte>:
    2c84:	7a02      	ldrb	r2, [r0, #8]
    2c86:	4603      	mov	r3, r0
    2c88:	b91a      	cbnz	r2, 2c92 <next_unwind_byte+0xe>
    2c8a:	7a42      	ldrb	r2, [r0, #9]
    2c8c:	b942      	cbnz	r2, 2ca0 <next_unwind_byte+0x1c>
    2c8e:	20b0      	movs	r0, #176	; 0xb0
    2c90:	4770      	bx	lr
    2c92:	6800      	ldr	r0, [r0, #0]
    2c94:	3a01      	subs	r2, #1
    2c96:	0201      	lsls	r1, r0, #8
    2c98:	721a      	strb	r2, [r3, #8]
    2c9a:	0e00      	lsrs	r0, r0, #24
    2c9c:	6019      	str	r1, [r3, #0]
    2c9e:	4770      	bx	lr
    2ca0:	6841      	ldr	r1, [r0, #4]
    2ca2:	1e50      	subs	r0, r2, #1
    2ca4:	7258      	strb	r0, [r3, #9]
    2ca6:	f851 0b04 	ldr.w	r0, [r1], #4
    2caa:	2203      	movs	r2, #3
    2cac:	6059      	str	r1, [r3, #4]
    2cae:	0201      	lsls	r1, r0, #8
    2cb0:	721a      	strb	r2, [r3, #8]
    2cb2:	0e00      	lsrs	r0, r0, #24
    2cb4:	6019      	str	r1, [r3, #0]
    2cb6:	4770      	bx	lr

00002cb8 <_Unwind_GetGR.constprop.0>:
    2cb8:	b510      	push	{r4, lr}
    2cba:	2100      	movs	r1, #0
    2cbc:	b084      	sub	sp, #16
    2cbe:	220c      	movs	r2, #12
    2cc0:	eb0d 0402 	add.w	r4, sp, r2
    2cc4:	460b      	mov	r3, r1
    2cc6:	9400      	str	r4, [sp, #0]
    2cc8:	f7ff fab4 	bl	2234 <_Unwind_VRS_Get>
    2ccc:	9803      	ldr	r0, [sp, #12]
    2cce:	b004      	add	sp, #16
    2cd0:	bd10      	pop	{r4, pc}
    2cd2:	bf00      	nop

00002cd4 <unwind_UCB_from_context>:
    2cd4:	e7f0      	b.n	2cb8 <_Unwind_GetGR.constprop.0>
    2cd6:	bf00      	nop

00002cd8 <__gnu_unwind_execute>:
    2cd8:	e92d 43f0 	stmdb	sp!, {r4, r5, r6, r7, r8, r9, lr}
    2cdc:	4606      	mov	r6, r0
    2cde:	b085      	sub	sp, #20
    2ce0:	460d      	mov	r5, r1
    2ce2:	f04f 0900 	mov.w	r9, #0
    2ce6:	f44f 677f 	mov.w	r7, #4080	; 0xff0
    2cea:	4628      	mov	r0, r5
    2cec:	f7ff ffca 	bl	2c84 <next_unwind_byte>
    2cf0:	28b0      	cmp	r0, #176	; 0xb0
    2cf2:	4604      	mov	r4, r0
    2cf4:	f000 80b1 	beq.w	2e5a <__gnu_unwind_execute+0x182>
    2cf8:	f010 0180 	ands.w	r1, r0, #128	; 0x80
    2cfc:	d020      	beq.n	2d40 <__gnu_unwind_execute+0x68>
    2cfe:	f000 03f0 	and.w	r3, r0, #240	; 0xf0
    2d02:	2b80      	cmp	r3, #128	; 0x80
    2d04:	d075      	beq.n	2df2 <__gnu_unwind_execute+0x11a>
    2d06:	2b90      	cmp	r3, #144	; 0x90
    2d08:	d037      	beq.n	2d7a <__gnu_unwind_execute+0xa2>
    2d0a:	2ba0      	cmp	r3, #160	; 0xa0
    2d0c:	d045      	beq.n	2d9a <__gnu_unwind_execute+0xc2>
    2d0e:	2bb0      	cmp	r3, #176	; 0xb0
    2d10:	d056      	beq.n	2dc0 <__gnu_unwind_execute+0xe8>
    2d12:	2bc0      	cmp	r3, #192	; 0xc0
    2d14:	f000 8086 	beq.w	2e24 <__gnu_unwind_execute+0x14c>
    2d18:	f000 00f8 	and.w	r0, r0, #248	; 0xf8
    2d1c:	28d0      	cmp	r0, #208	; 0xd0
    2d1e:	d10b      	bne.n	2d38 <__gnu_unwind_execute+0x60>
    2d20:	f004 0307 	and.w	r3, r4, #7
    2d24:	1c5a      	adds	r2, r3, #1
    2d26:	f442 2200 	orr.w	r2, r2, #524288	; 0x80000
    2d2a:	4630      	mov	r0, r6
    2d2c:	2101      	movs	r1, #1
    2d2e:	2305      	movs	r3, #5
    2d30:	f7ff fc52 	bl	25d8 <_Unwind_VRS_Pop>
    2d34:	2800      	cmp	r0, #0
    2d36:	d0d8      	beq.n	2cea <__gnu_unwind_execute+0x12>
    2d38:	2009      	movs	r0, #9
    2d3a:	b005      	add	sp, #20
    2d3c:	e8bd 83f0 	ldmia.w	sp!, {r4, r5, r6, r7, r8, r9, pc}
    2d40:	ea4f 0280 	mov.w	r2, r0, lsl #2
    2d44:	a803      	add	r0, sp, #12
    2d46:	fa5f f882 	uxtb.w	r8, r2
    2d4a:	9000      	str	r0, [sp, #0]
    2d4c:	220d      	movs	r2, #13
    2d4e:	460b      	mov	r3, r1
    2d50:	4630      	mov	r0, r6
    2d52:	f7ff fa6f 	bl	2234 <_Unwind_VRS_Get>
    2d56:	9b03      	ldr	r3, [sp, #12]
    2d58:	0660      	lsls	r0, r4, #25
    2d5a:	f108 0804 	add.w	r8, r8, #4
    2d5e:	bf4c      	ite	mi
    2d60:	ebc8 0303 	rsbmi	r3, r8, r3
    2d64:	4443      	addpl	r3, r8
    2d66:	ac03      	add	r4, sp, #12
    2d68:	9303      	str	r3, [sp, #12]
    2d6a:	9400      	str	r4, [sp, #0]
    2d6c:	2100      	movs	r1, #0
    2d6e:	4630      	mov	r0, r6
    2d70:	220d      	movs	r2, #13
    2d72:	460b      	mov	r3, r1
    2d74:	f7ff fa7e 	bl	2274 <_Unwind_VRS_Set>
    2d78:	e7b7      	b.n	2cea <__gnu_unwind_execute+0x12>
    2d7a:	f000 020f 	and.w	r2, r0, #15
    2d7e:	2a0d      	cmp	r2, #13
    2d80:	d0da      	beq.n	2d38 <__gnu_unwind_execute+0x60>
    2d82:	2a0f      	cmp	r2, #15
    2d84:	d0d8      	beq.n	2d38 <__gnu_unwind_execute+0x60>
    2d86:	2100      	movs	r1, #0
    2d88:	ac03      	add	r4, sp, #12
    2d8a:	9400      	str	r4, [sp, #0]
    2d8c:	4630      	mov	r0, r6
    2d8e:	460b      	mov	r3, r1
    2d90:	ac03      	add	r4, sp, #12
    2d92:	f7ff fa4f 	bl	2234 <_Unwind_VRS_Get>
    2d96:	9400      	str	r4, [sp, #0]
    2d98:	e7e8      	b.n	2d6c <__gnu_unwind_execute+0x94>
    2d9a:	43c2      	mvns	r2, r0
    2d9c:	f002 0c07 	and.w	ip, r2, #7
    2da0:	fa47 f00c 	asr.w	r0, r7, ip
    2da4:	0721      	lsls	r1, r4, #28
    2da6:	f400 627f 	and.w	r2, r0, #4080	; 0xff0
    2daa:	bf48      	it	mi
    2dac:	f442 4280 	orrmi.w	r2, r2, #16384	; 0x4000
    2db0:	2100      	movs	r1, #0
    2db2:	4630      	mov	r0, r6
    2db4:	460b      	mov	r3, r1
    2db6:	f7ff fc0f 	bl	25d8 <_Unwind_VRS_Pop>
    2dba:	2800      	cmp	r0, #0
    2dbc:	d1bc      	bne.n	2d38 <__gnu_unwind_execute+0x60>
    2dbe:	e794      	b.n	2cea <__gnu_unwind_execute+0x12>
    2dc0:	28b1      	cmp	r0, #177	; 0xb1
    2dc2:	d05e      	beq.n	2e82 <__gnu_unwind_execute+0x1aa>
    2dc4:	28b2      	cmp	r0, #178	; 0xb2
    2dc6:	d06f      	beq.n	2ea8 <__gnu_unwind_execute+0x1d0>
    2dc8:	28b3      	cmp	r0, #179	; 0xb3
    2dca:	f000 8096 	beq.w	2efa <__gnu_unwind_execute+0x222>
    2dce:	f000 0cfc 	and.w	ip, r0, #252	; 0xfc
    2dd2:	f1bc 0fb4 	cmp.w	ip, #180	; 0xb4
    2dd6:	d046      	beq.n	2e66 <__gnu_unwind_execute+0x18e>
    2dd8:	f000 0107 	and.w	r1, r0, #7
    2ddc:	1c4a      	adds	r2, r1, #1
    2dde:	f442 2200 	orr.w	r2, r2, #524288	; 0x80000
    2de2:	2101      	movs	r1, #1
    2de4:	4630      	mov	r0, r6
    2de6:	460b      	mov	r3, r1
    2de8:	f7ff fbf6 	bl	25d8 <_Unwind_VRS_Pop>
    2dec:	2800      	cmp	r0, #0
    2dee:	d1a3      	bne.n	2d38 <__gnu_unwind_execute+0x60>
    2df0:	e77b      	b.n	2cea <__gnu_unwind_execute+0x12>
    2df2:	4628      	mov	r0, r5
    2df4:	f7ff ff46 	bl	2c84 <next_unwind_byte>
    2df8:	0221      	lsls	r1, r4, #8
    2dfa:	ea40 0401 	orr.w	r4, r0, r1
    2dfe:	f5b4 4f00 	cmp.w	r4, #32768	; 0x8000
    2e02:	d099      	beq.n	2d38 <__gnu_unwind_execute+0x60>
    2e04:	0523      	lsls	r3, r4, #20
    2e06:	2100      	movs	r1, #0
    2e08:	0c1a      	lsrs	r2, r3, #16
    2e0a:	4630      	mov	r0, r6
    2e0c:	460b      	mov	r3, r1
    2e0e:	0124      	lsls	r4, r4, #4
    2e10:	f7ff fbe2 	bl	25d8 <_Unwind_VRS_Pop>
    2e14:	2800      	cmp	r0, #0
    2e16:	d18f      	bne.n	2d38 <__gnu_unwind_execute+0x60>
    2e18:	f414 4f00 	tst.w	r4, #32768	; 0x8000
    2e1c:	bf18      	it	ne
    2e1e:	f04f 0901 	movne.w	r9, #1
    2e22:	e762      	b.n	2cea <__gnu_unwind_execute+0x12>
    2e24:	28c6      	cmp	r0, #198	; 0xc6
    2e26:	d073      	beq.n	2f10 <__gnu_unwind_execute+0x238>
    2e28:	28c7      	cmp	r0, #199	; 0xc7
    2e2a:	f000 8084 	beq.w	2f36 <__gnu_unwind_execute+0x25e>
    2e2e:	f000 01f8 	and.w	r1, r0, #248	; 0xf8
    2e32:	29c0      	cmp	r1, #192	; 0xc0
    2e34:	f000 8092 	beq.w	2f5c <__gnu_unwind_execute+0x284>
    2e38:	28c8      	cmp	r0, #200	; 0xc8
    2e3a:	f000 80a6 	beq.w	2f8a <__gnu_unwind_execute+0x2b2>
    2e3e:	28c9      	cmp	r0, #201	; 0xc9
    2e40:	f47f af7a 	bne.w	2d38 <__gnu_unwind_execute+0x60>
    2e44:	4628      	mov	r0, r5
    2e46:	f7ff ff1d 	bl	2c84 <next_unwind_byte>
    2e4a:	f000 010f 	and.w	r1, r0, #15
    2e4e:	f000 02f0 	and.w	r2, r0, #240	; 0xf0
    2e52:	1c4b      	adds	r3, r1, #1
    2e54:	ea43 3202 	orr.w	r2, r3, r2, lsl #12
    2e58:	e767      	b.n	2d2a <__gnu_unwind_execute+0x52>
    2e5a:	f1b9 0f00 	cmp.w	r9, #0
    2e5e:	f000 8083 	beq.w	2f68 <__gnu_unwind_execute+0x290>
    2e62:	2000      	movs	r0, #0
    2e64:	e769      	b.n	2d3a <__gnu_unwind_execute+0x62>
    2e66:	f000 0003 	and.w	r0, r0, #3
    2e6a:	1c43      	adds	r3, r0, #1
    2e6c:	2102      	movs	r1, #2
    2e6e:	f443 2280 	orr.w	r2, r3, #262144	; 0x40000
    2e72:	4630      	mov	r0, r6
    2e74:	460b      	mov	r3, r1
    2e76:	f7ff fbaf 	bl	25d8 <_Unwind_VRS_Pop>
    2e7a:	2800      	cmp	r0, #0
    2e7c:	f47f af5c 	bne.w	2d38 <__gnu_unwind_execute+0x60>
    2e80:	e733      	b.n	2cea <__gnu_unwind_execute+0x12>
    2e82:	4628      	mov	r0, r5
    2e84:	f7ff fefe 	bl	2c84 <next_unwind_byte>
    2e88:	4602      	mov	r2, r0
    2e8a:	2800      	cmp	r0, #0
    2e8c:	f43f af54 	beq.w	2d38 <__gnu_unwind_execute+0x60>
    2e90:	f010 01f0 	ands.w	r1, r0, #240	; 0xf0
    2e94:	f47f af50 	bne.w	2d38 <__gnu_unwind_execute+0x60>
    2e98:	4630      	mov	r0, r6
    2e9a:	460b      	mov	r3, r1
    2e9c:	f7ff fb9c 	bl	25d8 <_Unwind_VRS_Pop>
    2ea0:	2800      	cmp	r0, #0
    2ea2:	f47f af49 	bne.w	2d38 <__gnu_unwind_execute+0x60>
    2ea6:	e720      	b.n	2cea <__gnu_unwind_execute+0x12>
    2ea8:	2100      	movs	r1, #0
    2eaa:	220d      	movs	r2, #13
    2eac:	460b      	mov	r3, r1
    2eae:	ac03      	add	r4, sp, #12
    2eb0:	4630      	mov	r0, r6
    2eb2:	9400      	str	r4, [sp, #0]
    2eb4:	f7ff f9be 	bl	2234 <_Unwind_VRS_Get>
    2eb8:	4628      	mov	r0, r5
    2eba:	f7ff fee3 	bl	2c84 <next_unwind_byte>
    2ebe:	2402      	movs	r4, #2
    2ec0:	0602      	lsls	r2, r0, #24
    2ec2:	d50d      	bpl.n	2ee0 <__gnu_unwind_execute+0x208>
    2ec4:	f000 007f 	and.w	r0, r0, #127	; 0x7f
    2ec8:	fa00 fe04 	lsl.w	lr, r0, r4
    2ecc:	9b03      	ldr	r3, [sp, #12]
    2ece:	4628      	mov	r0, r5
    2ed0:	eb03 010e 	add.w	r1, r3, lr
    2ed4:	9103      	str	r1, [sp, #12]
    2ed6:	f7ff fed5 	bl	2c84 <next_unwind_byte>
    2eda:	3407      	adds	r4, #7
    2edc:	0603      	lsls	r3, r0, #24
    2ede:	d4f1      	bmi.n	2ec4 <__gnu_unwind_execute+0x1ec>
    2ee0:	f000 0e7f 	and.w	lr, r0, #127	; 0x7f
    2ee4:	fa0e f404 	lsl.w	r4, lr, r4
    2ee8:	9903      	ldr	r1, [sp, #12]
    2eea:	ab03      	add	r3, sp, #12
    2eec:	f501 7c01 	add.w	ip, r1, #516	; 0x204
    2ef0:	eb0c 0204 	add.w	r2, ip, r4
    2ef4:	9300      	str	r3, [sp, #0]
    2ef6:	9203      	str	r2, [sp, #12]
    2ef8:	e738      	b.n	2d6c <__gnu_unwind_execute+0x94>
    2efa:	4628      	mov	r0, r5
    2efc:	f7ff fec2 	bl	2c84 <next_unwind_byte>
    2f00:	f000 010f 	and.w	r1, r0, #15
    2f04:	1c4a      	adds	r2, r1, #1
    2f06:	f000 00f0 	and.w	r0, r0, #240	; 0xf0
    2f0a:	ea42 3200 	orr.w	r2, r2, r0, lsl #12
    2f0e:	e768      	b.n	2de2 <__gnu_unwind_execute+0x10a>
    2f10:	4628      	mov	r0, r5
    2f12:	f7ff feb7 	bl	2c84 <next_unwind_byte>
    2f16:	f000 020f 	and.w	r2, r0, #15
    2f1a:	1c53      	adds	r3, r2, #1
    2f1c:	f000 00f0 	and.w	r0, r0, #240	; 0xf0
    2f20:	ea43 3200 	orr.w	r2, r3, r0, lsl #12
    2f24:	2103      	movs	r1, #3
    2f26:	4630      	mov	r0, r6
    2f28:	460b      	mov	r3, r1
    2f2a:	f7ff fb55 	bl	25d8 <_Unwind_VRS_Pop>
    2f2e:	2800      	cmp	r0, #0
    2f30:	f47f af02 	bne.w	2d38 <__gnu_unwind_execute+0x60>
    2f34:	e6d9      	b.n	2cea <__gnu_unwind_execute+0x12>
    2f36:	4628      	mov	r0, r5
    2f38:	f7ff fea4 	bl	2c84 <next_unwind_byte>
    2f3c:	4602      	mov	r2, r0
    2f3e:	2800      	cmp	r0, #0
    2f40:	f43f aefa 	beq.w	2d38 <__gnu_unwind_execute+0x60>
    2f44:	f010 03f0 	ands.w	r3, r0, #240	; 0xf0
    2f48:	f47f aef6 	bne.w	2d38 <__gnu_unwind_execute+0x60>
    2f4c:	4630      	mov	r0, r6
    2f4e:	2104      	movs	r1, #4
    2f50:	f7ff fb42 	bl	25d8 <_Unwind_VRS_Pop>
    2f54:	2800      	cmp	r0, #0
    2f56:	f47f aeef 	bne.w	2d38 <__gnu_unwind_execute+0x60>
    2f5a:	e6c6      	b.n	2cea <__gnu_unwind_execute+0x12>
    2f5c:	f000 030f 	and.w	r3, r0, #15
    2f60:	1c58      	adds	r0, r3, #1
    2f62:	f440 2220 	orr.w	r2, r0, #655360	; 0xa0000
    2f66:	e7dd      	b.n	2f24 <__gnu_unwind_execute+0x24c>
    2f68:	ac03      	add	r4, sp, #12
    2f6a:	4649      	mov	r1, r9
    2f6c:	220e      	movs	r2, #14
    2f6e:	464b      	mov	r3, r9
    2f70:	4630      	mov	r0, r6
    2f72:	9400      	str	r4, [sp, #0]
    2f74:	f7ff f95e 	bl	2234 <_Unwind_VRS_Get>
    2f78:	4630      	mov	r0, r6
    2f7a:	4649      	mov	r1, r9
    2f7c:	220f      	movs	r2, #15
    2f7e:	464b      	mov	r3, r9
    2f80:	9400      	str	r4, [sp, #0]
    2f82:	f7ff f977 	bl	2274 <_Unwind_VRS_Set>
    2f86:	4648      	mov	r0, r9
    2f88:	e6d7      	b.n	2d3a <__gnu_unwind_execute+0x62>
    2f8a:	4628      	mov	r0, r5
    2f8c:	f7ff fe7a 	bl	2c84 <next_unwind_byte>
    2f90:	f000 02f0 	and.w	r2, r0, #240	; 0xf0
    2f94:	f000 000f 	and.w	r0, r0, #15
    2f98:	3210      	adds	r2, #16
    2f9a:	1c41      	adds	r1, r0, #1
    2f9c:	ea41 3202 	orr.w	r2, r1, r2, lsl #12
    2fa0:	e6c3      	b.n	2d2a <__gnu_unwind_execute+0x52>
    2fa2:	bf00      	nop

00002fa4 <__gnu_unwind_frame>:
    2fa4:	b510      	push	{r4, lr}
    2fa6:	6cc2      	ldr	r2, [r0, #76]	; 0x4c
    2fa8:	b084      	sub	sp, #16
    2faa:	2003      	movs	r0, #3
    2fac:	6854      	ldr	r4, [r2, #4]
    2fae:	f88d 000c 	strb.w	r0, [sp, #12]
    2fb2:	79d3      	ldrb	r3, [r2, #7]
    2fb4:	0224      	lsls	r4, r4, #8
    2fb6:	3208      	adds	r2, #8
    2fb8:	4608      	mov	r0, r1
    2fba:	a901      	add	r1, sp, #4
    2fbc:	9401      	str	r4, [sp, #4]
    2fbe:	9202      	str	r2, [sp, #8]
    2fc0:	f88d 300d 	strb.w	r3, [sp, #13]
    2fc4:	f7ff fe88 	bl	2cd8 <__gnu_unwind_execute>
    2fc8:	b004      	add	sp, #16
    2fca:	bd10      	pop	{r4, pc}

00002fcc <_Unwind_GetRegionStart>:
    2fcc:	b508      	push	{r3, lr}
    2fce:	f7ff fe81 	bl	2cd4 <unwind_UCB_from_context>
    2fd2:	6c80      	ldr	r0, [r0, #72]	; 0x48
    2fd4:	bd08      	pop	{r3, pc}
    2fd6:	bf00      	nop

00002fd8 <_Unwind_GetLanguageSpecificData>:
    2fd8:	b508      	push	{r3, lr}
    2fda:	f7ff fe7b 	bl	2cd4 <unwind_UCB_from_context>
    2fde:	6cc1      	ldr	r1, [r0, #76]	; 0x4c
    2fe0:	79c8      	ldrb	r0, [r1, #7]
    2fe2:	eb01 0380 	add.w	r3, r1, r0, lsl #2
    2fe6:	f103 0008 	add.w	r0, r3, #8
    2fea:	bd08      	pop	{r3, pc}

00002fec <_Unwind_GetDataRelBase>:
    2fec:	b508      	push	{r3, lr}
    2fee:	f7fe ff05 	bl	1dfc <abort>
    2ff2:	bf00      	nop

00002ff4 <_Unwind_GetTextRelBase>:
    2ff4:	b508      	push	{r3, lr}
    2ff6:	f7fe ff01 	bl	1dfc <abort>
    2ffa:	bf00      	nop

00002ffc <__aeabi_idiv0>:
    2ffc:	4770      	bx	lr
    2ffe:	bf00      	nop

00003000 <__divdi3>:
    3000:	e92d 0ff0 	stmdb	sp!, {r4, r5, r6, r7, r8, r9, sl, fp}
    3004:	2900      	cmp	r1, #0
    3006:	461d      	mov	r5, r3
    3008:	f2c0 809d 	blt.w	3146 <__divdi3+0x146>
    300c:	2400      	movs	r4, #0
    300e:	2d00      	cmp	r5, #0
    3010:	f2c0 8094 	blt.w	313c <__divdi3+0x13c>
    3014:	4607      	mov	r7, r0
    3016:	460d      	mov	r5, r1
    3018:	4616      	mov	r6, r2
    301a:	469c      	mov	ip, r3
    301c:	2b00      	cmp	r3, #0
    301e:	d13d      	bne.n	309c <__divdi3+0x9c>
    3020:	428a      	cmp	r2, r1
    3022:	d953      	bls.n	30cc <__divdi3+0xcc>
    3024:	fab2 f382 	clz	r3, r2
    3028:	b143      	cbz	r3, 303c <__divdi3+0x3c>
    302a:	f1c3 0620 	rsb	r6, r3, #32
    302e:	fa20 f506 	lsr.w	r5, r0, r6
    3032:	fa01 f103 	lsl.w	r1, r1, r3
    3036:	409a      	lsls	r2, r3
    3038:	4098      	lsls	r0, r3
    303a:	4329      	orrs	r1, r5
    303c:	0c13      	lsrs	r3, r2, #16
    303e:	fbb1 f6f3 	udiv	r6, r1, r3
    3042:	b297      	uxth	r7, r2
    3044:	fb03 1116 	mls	r1, r3, r6, r1
    3048:	fb07 f506 	mul.w	r5, r7, r6
    304c:	ea4f 4c10 	mov.w	ip, r0, lsr #16
    3050:	ea4c 4101 	orr.w	r1, ip, r1, lsl #16
    3054:	428d      	cmp	r5, r1
    3056:	d909      	bls.n	306c <__divdi3+0x6c>
    3058:	1889      	adds	r1, r1, r2
    305a:	f106 3cff 	add.w	ip, r6, #4294967295
    305e:	f080 8114 	bcs.w	328a <__divdi3+0x28a>
    3062:	428d      	cmp	r5, r1
    3064:	f240 8111 	bls.w	328a <__divdi3+0x28a>
    3068:	3e02      	subs	r6, #2
    306a:	1889      	adds	r1, r1, r2
    306c:	1b49      	subs	r1, r1, r5
    306e:	fbb1 f5f3 	udiv	r5, r1, r3
    3072:	fb03 1315 	mls	r3, r3, r5, r1
    3076:	fb07 f705 	mul.w	r7, r7, r5
    307a:	b280      	uxth	r0, r0
    307c:	ea40 4303 	orr.w	r3, r0, r3, lsl #16
    3080:	429f      	cmp	r7, r3
    3082:	d907      	bls.n	3094 <__divdi3+0x94>
    3084:	1e69      	subs	r1, r5, #1
    3086:	189b      	adds	r3, r3, r2
    3088:	f080 8105 	bcs.w	3296 <__divdi3+0x296>
    308c:	429f      	cmp	r7, r3
    308e:	f240 8102 	bls.w	3296 <__divdi3+0x296>
    3092:	3d02      	subs	r5, #2
    3094:	ea45 4206 	orr.w	r2, r5, r6, lsl #16
    3098:	2300      	movs	r3, #0
    309a:	e003      	b.n	30a4 <__divdi3+0xa4>
    309c:	428b      	cmp	r3, r1
    309e:	d90a      	bls.n	30b6 <__divdi3+0xb6>
    30a0:	2300      	movs	r3, #0
    30a2:	461a      	mov	r2, r3
    30a4:	4610      	mov	r0, r2
    30a6:	4619      	mov	r1, r3
    30a8:	b114      	cbz	r4, 30b0 <__divdi3+0xb0>
    30aa:	4240      	negs	r0, r0
    30ac:	eb61 0141 	sbc.w	r1, r1, r1, lsl #1
    30b0:	e8bd 0ff0 	ldmia.w	sp!, {r4, r5, r6, r7, r8, r9, sl, fp}
    30b4:	4770      	bx	lr
    30b6:	fab3 f383 	clz	r3, r3
    30ba:	2b00      	cmp	r3, #0
    30bc:	f040 8087 	bne.w	31ce <__divdi3+0x1ce>
    30c0:	458c      	cmp	ip, r1
    30c2:	d301      	bcc.n	30c8 <__divdi3+0xc8>
    30c4:	4282      	cmp	r2, r0
    30c6:	d8ec      	bhi.n	30a2 <__divdi3+0xa2>
    30c8:	2201      	movs	r2, #1
    30ca:	e7eb      	b.n	30a4 <__divdi3+0xa4>
    30cc:	b912      	cbnz	r2, 30d4 <__divdi3+0xd4>
    30ce:	2701      	movs	r7, #1
    30d0:	fbb7 f2f2 	udiv	r2, r7, r2
    30d4:	fab2 f682 	clz	r6, r2
    30d8:	2e00      	cmp	r6, #0
    30da:	d13a      	bne.n	3152 <__divdi3+0x152>
    30dc:	1a89      	subs	r1, r1, r2
    30de:	0c15      	lsrs	r5, r2, #16
    30e0:	fa1f fc82 	uxth.w	ip, r2
    30e4:	2301      	movs	r3, #1
    30e6:	fbb1 f7f5 	udiv	r7, r1, r5
    30ea:	fb05 1117 	mls	r1, r5, r7, r1
    30ee:	fb0c f607 	mul.w	r6, ip, r7
    30f2:	ea4f 4810 	mov.w	r8, r0, lsr #16
    30f6:	ea48 4101 	orr.w	r1, r8, r1, lsl #16
    30fa:	428e      	cmp	r6, r1
    30fc:	d907      	bls.n	310e <__divdi3+0x10e>
    30fe:	1889      	adds	r1, r1, r2
    3100:	f107 38ff 	add.w	r8, r7, #4294967295
    3104:	d202      	bcs.n	310c <__divdi3+0x10c>
    3106:	428e      	cmp	r6, r1
    3108:	f200 80da 	bhi.w	32c0 <__divdi3+0x2c0>
    310c:	4647      	mov	r7, r8
    310e:	1b89      	subs	r1, r1, r6
    3110:	fbb1 f6f5 	udiv	r6, r1, r5
    3114:	fb05 1116 	mls	r1, r5, r6, r1
    3118:	fb0c fc06 	mul.w	ip, ip, r6
    311c:	b280      	uxth	r0, r0
    311e:	ea40 4001 	orr.w	r0, r0, r1, lsl #16
    3122:	4584      	cmp	ip, r0
    3124:	d907      	bls.n	3136 <__divdi3+0x136>
    3126:	1e71      	subs	r1, r6, #1
    3128:	1882      	adds	r2, r0, r2
    312a:	f080 80b0 	bcs.w	328e <__divdi3+0x28e>
    312e:	4594      	cmp	ip, r2
    3130:	f240 80ad 	bls.w	328e <__divdi3+0x28e>
    3134:	3e02      	subs	r6, #2
    3136:	ea46 4207 	orr.w	r2, r6, r7, lsl #16
    313a:	e7b3      	b.n	30a4 <__divdi3+0xa4>
    313c:	43e4      	mvns	r4, r4
    313e:	4252      	negs	r2, r2
    3140:	eb63 0343 	sbc.w	r3, r3, r3, lsl #1
    3144:	e766      	b.n	3014 <__divdi3+0x14>
    3146:	4240      	negs	r0, r0
    3148:	eb61 0141 	sbc.w	r1, r1, r1, lsl #1
    314c:	f04f 34ff 	mov.w	r4, #4294967295
    3150:	e75d      	b.n	300e <__divdi3+0xe>
    3152:	40b2      	lsls	r2, r6
    3154:	f1c6 0520 	rsb	r5, r6, #32
    3158:	fa21 f305 	lsr.w	r3, r1, r5
    315c:	fa20 f905 	lsr.w	r9, r0, r5
    3160:	fa01 f106 	lsl.w	r1, r1, r6
    3164:	0c15      	lsrs	r5, r2, #16
    3166:	fbb3 f8f5 	udiv	r8, r3, r5
    316a:	fb05 3718 	mls	r7, r5, r8, r3
    316e:	fa1f fc82 	uxth.w	ip, r2
    3172:	fb0c f308 	mul.w	r3, ip, r8
    3176:	ea49 0901 	orr.w	r9, r9, r1
    317a:	ea4f 4119 	mov.w	r1, r9, lsr #16
    317e:	ea41 4707 	orr.w	r7, r1, r7, lsl #16
    3182:	40b0      	lsls	r0, r6
    3184:	42bb      	cmp	r3, r7
    3186:	d90a      	bls.n	319e <__divdi3+0x19e>
    3188:	18bf      	adds	r7, r7, r2
    318a:	f108 31ff 	add.w	r1, r8, #4294967295
    318e:	f080 8095 	bcs.w	32bc <__divdi3+0x2bc>
    3192:	42bb      	cmp	r3, r7
    3194:	f240 8092 	bls.w	32bc <__divdi3+0x2bc>
    3198:	f1a8 0802 	sub.w	r8, r8, #2
    319c:	18bf      	adds	r7, r7, r2
    319e:	1afe      	subs	r6, r7, r3
    31a0:	fbb6 f3f5 	udiv	r3, r6, r5
    31a4:	fb05 6713 	mls	r7, r5, r3, r6
    31a8:	fb0c f603 	mul.w	r6, ip, r3
    31ac:	fa1f f989 	uxth.w	r9, r9
    31b0:	ea49 4107 	orr.w	r1, r9, r7, lsl #16
    31b4:	428e      	cmp	r6, r1
    31b6:	d906      	bls.n	31c6 <__divdi3+0x1c6>
    31b8:	1e5f      	subs	r7, r3, #1
    31ba:	1889      	adds	r1, r1, r2
    31bc:	d278      	bcs.n	32b0 <__divdi3+0x2b0>
    31be:	428e      	cmp	r6, r1
    31c0:	d976      	bls.n	32b0 <__divdi3+0x2b0>
    31c2:	3b02      	subs	r3, #2
    31c4:	1889      	adds	r1, r1, r2
    31c6:	1b89      	subs	r1, r1, r6
    31c8:	ea43 4308 	orr.w	r3, r3, r8, lsl #16
    31cc:	e78b      	b.n	30e6 <__divdi3+0xe6>
    31ce:	f1c3 0120 	rsb	r1, r3, #32
    31d2:	fa22 f801 	lsr.w	r8, r2, r1
    31d6:	fa0c f703 	lsl.w	r7, ip, r3
    31da:	fa25 fb01 	lsr.w	fp, r5, r1
    31de:	fa20 f201 	lsr.w	r2, r0, r1
    31e2:	fa05 f503 	lsl.w	r5, r5, r3
    31e6:	ea48 0c07 	orr.w	ip, r8, r7
    31ea:	ea4f 481c 	mov.w	r8, ip, lsr #16
    31ee:	fbbb f9f8 	udiv	r9, fp, r8
    31f2:	fb08 b719 	mls	r7, r8, r9, fp
    31f6:	fa1f fa8c 	uxth.w	sl, ip
    31fa:	fb0a fb09 	mul.w	fp, sl, r9
    31fe:	4315      	orrs	r5, r2
    3200:	0c2a      	lsrs	r2, r5, #16
    3202:	ea42 4707 	orr.w	r7, r2, r7, lsl #16
    3206:	45bb      	cmp	fp, r7
    3208:	fa06 f603 	lsl.w	r6, r6, r3
    320c:	d909      	bls.n	3222 <__divdi3+0x222>
    320e:	eb17 070c 	adds.w	r7, r7, ip
    3212:	f109 32ff 	add.w	r2, r9, #4294967295
    3216:	d24f      	bcs.n	32b8 <__divdi3+0x2b8>
    3218:	45bb      	cmp	fp, r7
    321a:	d94d      	bls.n	32b8 <__divdi3+0x2b8>
    321c:	f1a9 0902 	sub.w	r9, r9, #2
    3220:	4467      	add	r7, ip
    3222:	ebcb 0107 	rsb	r1, fp, r7
    3226:	fbb1 f2f8 	udiv	r2, r1, r8
    322a:	fb08 1712 	mls	r7, r8, r2, r1
    322e:	fb0a fa02 	mul.w	sl, sl, r2
    3232:	b2ad      	uxth	r5, r5
    3234:	ea45 4107 	orr.w	r1, r5, r7, lsl #16
    3238:	458a      	cmp	sl, r1
    323a:	d907      	bls.n	324c <__divdi3+0x24c>
    323c:	1e55      	subs	r5, r2, #1
    323e:	eb11 010c 	adds.w	r1, r1, ip
    3242:	d237      	bcs.n	32b4 <__divdi3+0x2b4>
    3244:	458a      	cmp	sl, r1
    3246:	d935      	bls.n	32b4 <__divdi3+0x2b4>
    3248:	3a02      	subs	r2, #2
    324a:	4461      	add	r1, ip
    324c:	ea42 4209 	orr.w	r2, r2, r9, lsl #16
    3250:	fa1f f886 	uxth.w	r8, r6
    3254:	ea4f 4c12 	mov.w	ip, r2, lsr #16
    3258:	fb08 f70c 	mul.w	r7, r8, ip
    325c:	0c36      	lsrs	r6, r6, #16
    325e:	b295      	uxth	r5, r2
    3260:	fb08 f805 	mul.w	r8, r8, r5
    3264:	fb06 7505 	mla	r5, r6, r5, r7
    3268:	fb06 fc0c 	mul.w	ip, r6, ip
    326c:	eb05 4518 	add.w	r5, r5, r8, lsr #16
    3270:	42af      	cmp	r7, r5
    3272:	bf88      	it	hi
    3274:	f50c 3c80 	addhi.w	ip, ip, #65536	; 0x10000
    3278:	ebca 0101 	rsb	r1, sl, r1
    327c:	eb0c 4615 	add.w	r6, ip, r5, lsr #16
    3280:	42b1      	cmp	r1, r6
    3282:	d312      	bcc.n	32aa <__divdi3+0x2aa>
    3284:	d009      	beq.n	329a <__divdi3+0x29a>
    3286:	2300      	movs	r3, #0
    3288:	e70c      	b.n	30a4 <__divdi3+0xa4>
    328a:	4666      	mov	r6, ip
    328c:	e6ee      	b.n	306c <__divdi3+0x6c>
    328e:	460e      	mov	r6, r1
    3290:	ea46 4207 	orr.w	r2, r6, r7, lsl #16
    3294:	e706      	b.n	30a4 <__divdi3+0xa4>
    3296:	460d      	mov	r5, r1
    3298:	e6fc      	b.n	3094 <__divdi3+0x94>
    329a:	fa00 f303 	lsl.w	r3, r0, r3
    329e:	fa1f f888 	uxth.w	r8, r8
    32a2:	eb08 4505 	add.w	r5, r8, r5, lsl #16
    32a6:	42ab      	cmp	r3, r5
    32a8:	d2ed      	bcs.n	3286 <__divdi3+0x286>
    32aa:	3a01      	subs	r2, #1
    32ac:	2300      	movs	r3, #0
    32ae:	e6f9      	b.n	30a4 <__divdi3+0xa4>
    32b0:	463b      	mov	r3, r7
    32b2:	e788      	b.n	31c6 <__divdi3+0x1c6>
    32b4:	462a      	mov	r2, r5
    32b6:	e7c9      	b.n	324c <__divdi3+0x24c>
    32b8:	4691      	mov	r9, r2
    32ba:	e7b2      	b.n	3222 <__divdi3+0x222>
    32bc:	4688      	mov	r8, r1
    32be:	e76e      	b.n	319e <__divdi3+0x19e>
    32c0:	3f02      	subs	r7, #2
    32c2:	1889      	adds	r1, r1, r2
    32c4:	e723      	b.n	310e <__divdi3+0x10e>
    32c6:	bf00      	nop

000032c8 <__udivdi3>:
    32c8:	e92d 07f0 	stmdb	sp!, {r4, r5, r6, r7, r8, r9, sl}
    32cc:	4614      	mov	r4, r2
    32ce:	4605      	mov	r5, r0
    32d0:	460e      	mov	r6, r1
    32d2:	2b00      	cmp	r3, #0
    32d4:	d13f      	bne.n	3356 <__udivdi3+0x8e>
    32d6:	428a      	cmp	r2, r1
    32d8:	d94a      	bls.n	3370 <__udivdi3+0xa8>
    32da:	fab2 f382 	clz	r3, r2
    32de:	b143      	cbz	r3, 32f2 <__udivdi3+0x2a>
    32e0:	f1c3 0020 	rsb	r0, r3, #32
    32e4:	fa25 f200 	lsr.w	r2, r5, r0
    32e8:	fa01 f603 	lsl.w	r6, r1, r3
    32ec:	409c      	lsls	r4, r3
    32ee:	409d      	lsls	r5, r3
    32f0:	4316      	orrs	r6, r2
    32f2:	0c23      	lsrs	r3, r4, #16
    32f4:	fbb6 f1f3 	udiv	r1, r6, r3
    32f8:	b2a0      	uxth	r0, r4
    32fa:	fb03 6c11 	mls	ip, r3, r1, r6
    32fe:	fb00 f201 	mul.w	r2, r0, r1
    3302:	0c2f      	lsrs	r7, r5, #16
    3304:	ea47 460c 	orr.w	r6, r7, ip, lsl #16
    3308:	42b2      	cmp	r2, r6
    330a:	d908      	bls.n	331e <__udivdi3+0x56>
    330c:	1e4f      	subs	r7, r1, #1
    330e:	1936      	adds	r6, r6, r4
    3310:	f080 80ff 	bcs.w	3512 <__udivdi3+0x24a>
    3314:	42b2      	cmp	r2, r6
    3316:	f240 80fc 	bls.w	3512 <__udivdi3+0x24a>
    331a:	3902      	subs	r1, #2
    331c:	1936      	adds	r6, r6, r4
    331e:	1ab6      	subs	r6, r6, r2
    3320:	fbb6 f2f3 	udiv	r2, r6, r3
    3324:	fb03 6312 	mls	r3, r3, r2, r6
    3328:	fb00 f002 	mul.w	r0, r0, r2
    332c:	b2ad      	uxth	r5, r5
    332e:	ea45 4303 	orr.w	r3, r5, r3, lsl #16
    3332:	4298      	cmp	r0, r3
    3334:	d907      	bls.n	3346 <__udivdi3+0x7e>
    3336:	1e56      	subs	r6, r2, #1
    3338:	191b      	adds	r3, r3, r4
    333a:	f080 80ec 	bcs.w	3516 <__udivdi3+0x24e>
    333e:	4298      	cmp	r0, r3
    3340:	f240 80e9 	bls.w	3516 <__udivdi3+0x24e>
    3344:	3a02      	subs	r2, #2
    3346:	ea42 4201 	orr.w	r2, r2, r1, lsl #16
    334a:	2300      	movs	r3, #0
    334c:	4610      	mov	r0, r2
    334e:	4619      	mov	r1, r3
    3350:	e8bd 07f0 	ldmia.w	sp!, {r4, r5, r6, r7, r8, r9, sl}
    3354:	4770      	bx	lr
    3356:	428b      	cmp	r3, r1
    3358:	d843      	bhi.n	33e2 <__udivdi3+0x11a>
    335a:	fab3 f483 	clz	r4, r3
    335e:	2c00      	cmp	r4, #0
    3360:	d142      	bne.n	33e8 <__udivdi3+0x120>
    3362:	428b      	cmp	r3, r1
    3364:	4623      	mov	r3, r4
    3366:	d301      	bcc.n	336c <__udivdi3+0xa4>
    3368:	4282      	cmp	r2, r0
    336a:	d83b      	bhi.n	33e4 <__udivdi3+0x11c>
    336c:	2201      	movs	r2, #1
    336e:	e7ed      	b.n	334c <__udivdi3+0x84>
    3370:	b912      	cbnz	r2, 3378 <__udivdi3+0xb0>
    3372:	2701      	movs	r7, #1
    3374:	fbb7 f4f2 	udiv	r4, r7, r2
    3378:	fab4 f284 	clz	r2, r4
    337c:	2a00      	cmp	r2, #0
    337e:	f040 808a 	bne.w	3496 <__udivdi3+0x1ce>
    3382:	1b09      	subs	r1, r1, r4
    3384:	0c26      	lsrs	r6, r4, #16
    3386:	b2a7      	uxth	r7, r4
    3388:	2301      	movs	r3, #1
    338a:	fbb1 f0f6 	udiv	r0, r1, r6
    338e:	fb06 1110 	mls	r1, r6, r0, r1
    3392:	fb07 f200 	mul.w	r2, r7, r0
    3396:	ea4f 4c15 	mov.w	ip, r5, lsr #16
    339a:	ea4c 4101 	orr.w	r1, ip, r1, lsl #16
    339e:	428a      	cmp	r2, r1
    33a0:	d907      	bls.n	33b2 <__udivdi3+0xea>
    33a2:	1909      	adds	r1, r1, r4
    33a4:	f100 3cff 	add.w	ip, r0, #4294967295
    33a8:	d202      	bcs.n	33b0 <__udivdi3+0xe8>
    33aa:	428a      	cmp	r2, r1
    33ac:	f200 80d4 	bhi.w	3558 <__udivdi3+0x290>
    33b0:	4660      	mov	r0, ip
    33b2:	ebc2 0c01 	rsb	ip, r2, r1
    33b6:	fbbc f2f6 	udiv	r2, ip, r6
    33ba:	fb06 c112 	mls	r1, r6, r2, ip
    33be:	fb07 f702 	mul.w	r7, r7, r2
    33c2:	b2ad      	uxth	r5, r5
    33c4:	ea45 4501 	orr.w	r5, r5, r1, lsl #16
    33c8:	42af      	cmp	r7, r5
    33ca:	d907      	bls.n	33dc <__udivdi3+0x114>
    33cc:	1e51      	subs	r1, r2, #1
    33ce:	192c      	adds	r4, r5, r4
    33d0:	f080 80a3 	bcs.w	351a <__udivdi3+0x252>
    33d4:	42a7      	cmp	r7, r4
    33d6:	f240 80a0 	bls.w	351a <__udivdi3+0x252>
    33da:	3a02      	subs	r2, #2
    33dc:	ea42 4200 	orr.w	r2, r2, r0, lsl #16
    33e0:	e7b4      	b.n	334c <__udivdi3+0x84>
    33e2:	2300      	movs	r3, #0
    33e4:	461a      	mov	r2, r3
    33e6:	e7b1      	b.n	334c <__udivdi3+0x84>
    33e8:	f1c4 0720 	rsb	r7, r4, #32
    33ec:	fa03 f804 	lsl.w	r8, r3, r4
    33f0:	fa22 f307 	lsr.w	r3, r2, r7
    33f4:	fa21 f907 	lsr.w	r9, r1, r7
    33f8:	fa20 fa07 	lsr.w	sl, r0, r7
    33fc:	fa01 f104 	lsl.w	r1, r1, r4
    3400:	ea43 0308 	orr.w	r3, r3, r8
    3404:	0c1e      	lsrs	r6, r3, #16
    3406:	fbb9 fcf6 	udiv	ip, r9, r6
    340a:	fb06 991c 	mls	r9, r6, ip, r9
    340e:	fa1f f883 	uxth.w	r8, r3
    3412:	fb08 f70c 	mul.w	r7, r8, ip
    3416:	ea4a 0a01 	orr.w	sl, sl, r1
    341a:	ea4f 451a 	mov.w	r5, sl, lsr #16
    341e:	ea45 4509 	orr.w	r5, r5, r9, lsl #16
    3422:	42af      	cmp	r7, r5
    3424:	fa02 f904 	lsl.w	r9, r2, r4
    3428:	d905      	bls.n	3436 <__udivdi3+0x16e>
    342a:	18ed      	adds	r5, r5, r3
    342c:	f10c 32ff 	add.w	r2, ip, #4294967295
    3430:	f0c0 8087 	bcc.w	3542 <__udivdi3+0x27a>
    3434:	4694      	mov	ip, r2
    3436:	1bea      	subs	r2, r5, r7
    3438:	fbb2 f7f6 	udiv	r7, r2, r6
    343c:	fb06 2617 	mls	r6, r6, r7, r2
    3440:	fb08 f807 	mul.w	r8, r8, r7
    3444:	fa1f fa8a 	uxth.w	sl, sl
    3448:	ea4a 4106 	orr.w	r1, sl, r6, lsl #16
    344c:	4588      	cmp	r8, r1
    344e:	d903      	bls.n	3458 <__udivdi3+0x190>
    3450:	1e7a      	subs	r2, r7, #1
    3452:	18c9      	adds	r1, r1, r3
    3454:	d370      	bcc.n	3538 <__udivdi3+0x270>
    3456:	4617      	mov	r7, r2
    3458:	ea47 420c 	orr.w	r2, r7, ip, lsl #16
    345c:	0c17      	lsrs	r7, r2, #16
    345e:	fa1f fc89 	uxth.w	ip, r9
    3462:	fb0c f607 	mul.w	r6, ip, r7
    3466:	b295      	uxth	r5, r2
    3468:	ea4f 4319 	mov.w	r3, r9, lsr #16
    346c:	fb0c fc05 	mul.w	ip, ip, r5
    3470:	fb03 6505 	mla	r5, r3, r5, r6
    3474:	fb03 f307 	mul.w	r3, r3, r7
    3478:	eb05 451c 	add.w	r5, r5, ip, lsr #16
    347c:	42ae      	cmp	r6, r5
    347e:	bf88      	it	hi
    3480:	f503 3380 	addhi.w	r3, r3, #65536	; 0x10000
    3484:	ebc8 0101 	rsb	r1, r8, r1
    3488:	eb03 4315 	add.w	r3, r3, r5, lsr #16
    348c:	4299      	cmp	r1, r3
    348e:	d350      	bcc.n	3532 <__udivdi3+0x26a>
    3490:	d047      	beq.n	3522 <__udivdi3+0x25a>
    3492:	2300      	movs	r3, #0
    3494:	e75a      	b.n	334c <__udivdi3+0x84>
    3496:	4094      	lsls	r4, r2
    3498:	f1c2 0620 	rsb	r6, r2, #32
    349c:	fa21 f506 	lsr.w	r5, r1, r6
    34a0:	fa20 f906 	lsr.w	r9, r0, r6
    34a4:	fa01 f102 	lsl.w	r1, r1, r2
    34a8:	0c26      	lsrs	r6, r4, #16
    34aa:	fbb5 f8f6 	udiv	r8, r5, r6
    34ae:	fb06 5518 	mls	r5, r6, r8, r5
    34b2:	b2a7      	uxth	r7, r4
    34b4:	fb07 f308 	mul.w	r3, r7, r8
    34b8:	ea49 0901 	orr.w	r9, r9, r1
    34bc:	ea4f 4119 	mov.w	r1, r9, lsr #16
    34c0:	ea41 4c05 	orr.w	ip, r1, r5, lsl #16
    34c4:	4563      	cmp	r3, ip
    34c6:	fa00 f502 	lsl.w	r5, r0, r2
    34ca:	d909      	bls.n	34e0 <__udivdi3+0x218>
    34cc:	eb1c 0c04 	adds.w	ip, ip, r4
    34d0:	f108 32ff 	add.w	r2, r8, #4294967295
    34d4:	d23e      	bcs.n	3554 <__udivdi3+0x28c>
    34d6:	4563      	cmp	r3, ip
    34d8:	d93c      	bls.n	3554 <__udivdi3+0x28c>
    34da:	f1a8 0802 	sub.w	r8, r8, #2
    34de:	44a4      	add	ip, r4
    34e0:	ebc3 020c 	rsb	r2, r3, ip
    34e4:	fbb2 f3f6 	udiv	r3, r2, r6
    34e8:	fb06 2013 	mls	r0, r6, r3, r2
    34ec:	fb07 f203 	mul.w	r2, r7, r3
    34f0:	fa1f f989 	uxth.w	r9, r9
    34f4:	ea49 4100 	orr.w	r1, r9, r0, lsl #16
    34f8:	428a      	cmp	r2, r1
    34fa:	d906      	bls.n	350a <__udivdi3+0x242>
    34fc:	1e58      	subs	r0, r3, #1
    34fe:	1909      	adds	r1, r1, r4
    3500:	d226      	bcs.n	3550 <__udivdi3+0x288>
    3502:	428a      	cmp	r2, r1
    3504:	d924      	bls.n	3550 <__udivdi3+0x288>
    3506:	3b02      	subs	r3, #2
    3508:	1909      	adds	r1, r1, r4
    350a:	1a89      	subs	r1, r1, r2
    350c:	ea43 4308 	orr.w	r3, r3, r8, lsl #16
    3510:	e73b      	b.n	338a <__udivdi3+0xc2>
    3512:	4639      	mov	r1, r7
    3514:	e703      	b.n	331e <__udivdi3+0x56>
    3516:	4632      	mov	r2, r6
    3518:	e715      	b.n	3346 <__udivdi3+0x7e>
    351a:	460a      	mov	r2, r1
    351c:	ea42 4200 	orr.w	r2, r2, r0, lsl #16
    3520:	e714      	b.n	334c <__udivdi3+0x84>
    3522:	fa00 f004 	lsl.w	r0, r0, r4
    3526:	fa1f f18c 	uxth.w	r1, ip
    352a:	eb01 4505 	add.w	r5, r1, r5, lsl #16
    352e:	42a8      	cmp	r0, r5
    3530:	d2af      	bcs.n	3492 <__udivdi3+0x1ca>
    3532:	3a01      	subs	r2, #1
    3534:	2300      	movs	r3, #0
    3536:	e709      	b.n	334c <__udivdi3+0x84>
    3538:	4588      	cmp	r8, r1
    353a:	d98c      	bls.n	3456 <__udivdi3+0x18e>
    353c:	3f02      	subs	r7, #2
    353e:	18c9      	adds	r1, r1, r3
    3540:	e78a      	b.n	3458 <__udivdi3+0x190>
    3542:	42af      	cmp	r7, r5
    3544:	f67f af76 	bls.w	3434 <__udivdi3+0x16c>
    3548:	f1ac 0c02 	sub.w	ip, ip, #2
    354c:	18ed      	adds	r5, r5, r3
    354e:	e772      	b.n	3436 <__udivdi3+0x16e>
    3550:	4603      	mov	r3, r0
    3552:	e7da      	b.n	350a <__udivdi3+0x242>
    3554:	4690      	mov	r8, r2
    3556:	e7c3      	b.n	34e0 <__udivdi3+0x218>
    3558:	3802      	subs	r0, #2
    355a:	1909      	adds	r1, r1, r4
    355c:	e729      	b.n	33b2 <__udivdi3+0xea>
    355e:	bf00      	nop

00003560 <memcpy>:
    3560:	2a0f      	cmp	r2, #15
    3562:	b4f0      	push	{r4, r5, r6, r7}
    3564:	d93a      	bls.n	35dc <memcpy+0x7c>
    3566:	ea41 0300 	orr.w	r3, r1, r0
    356a:	079b      	lsls	r3, r3, #30
    356c:	d138      	bne.n	35e0 <memcpy+0x80>
    356e:	460c      	mov	r4, r1
    3570:	4603      	mov	r3, r0
    3572:	4615      	mov	r5, r2
    3574:	6826      	ldr	r6, [r4, #0]
    3576:	3d10      	subs	r5, #16
    3578:	601e      	str	r6, [r3, #0]
    357a:	6866      	ldr	r6, [r4, #4]
    357c:	605e      	str	r6, [r3, #4]
    357e:	68a6      	ldr	r6, [r4, #8]
    3580:	609e      	str	r6, [r3, #8]
    3582:	68e6      	ldr	r6, [r4, #12]
    3584:	3410      	adds	r4, #16
    3586:	60de      	str	r6, [r3, #12]
    3588:	3310      	adds	r3, #16
    358a:	2d0f      	cmp	r5, #15
    358c:	d8f2      	bhi.n	3574 <memcpy+0x14>
    358e:	f1a2 0410 	sub.w	r4, r2, #16
    3592:	f024 040f 	bic.w	r4, r4, #15
    3596:	f002 020f 	and.w	r2, r2, #15
    359a:	3410      	adds	r4, #16
    359c:	2a03      	cmp	r2, #3
    359e:	eb00 0304 	add.w	r3, r0, r4
    35a2:	4421      	add	r1, r4
    35a4:	d911      	bls.n	35ca <memcpy+0x6a>
    35a6:	460e      	mov	r6, r1
    35a8:	461d      	mov	r5, r3
    35aa:	4614      	mov	r4, r2
    35ac:	f856 7b04 	ldr.w	r7, [r6], #4
    35b0:	3c04      	subs	r4, #4
    35b2:	2c03      	cmp	r4, #3
    35b4:	f845 7b04 	str.w	r7, [r5], #4
    35b8:	d8f8      	bhi.n	35ac <memcpy+0x4c>
    35ba:	1f14      	subs	r4, r2, #4
    35bc:	f024 0403 	bic.w	r4, r4, #3
    35c0:	3404      	adds	r4, #4
    35c2:	f002 0203 	and.w	r2, r2, #3
    35c6:	1909      	adds	r1, r1, r4
    35c8:	191b      	adds	r3, r3, r4
    35ca:	b12a      	cbz	r2, 35d8 <memcpy+0x78>
    35cc:	f811 4b01 	ldrb.w	r4, [r1], #1
    35d0:	3a01      	subs	r2, #1
    35d2:	f803 4b01 	strb.w	r4, [r3], #1
    35d6:	d1f9      	bne.n	35cc <memcpy+0x6c>
    35d8:	bcf0      	pop	{r4, r5, r6, r7}
    35da:	4770      	bx	lr
    35dc:	4603      	mov	r3, r0
    35de:	e7f4      	b.n	35ca <memcpy+0x6a>
    35e0:	4603      	mov	r3, r0
    35e2:	e7f3      	b.n	35cc <memcpy+0x6c>

000035e4 <strlen>:
    35e4:	f020 0103 	bic.w	r1, r0, #3
    35e8:	f010 0003 	ands.w	r0, r0, #3
    35ec:	f1c0 0000 	rsb	r0, r0, #0
    35f0:	f851 3b04 	ldr.w	r3, [r1], #4
    35f4:	f100 0c04 	add.w	ip, r0, #4
    35f8:	ea4f 0ccc 	mov.w	ip, ip, lsl #3
    35fc:	f06f 0200 	mvn.w	r2, #0
    3600:	bf1c      	itt	ne
    3602:	fa22 f20c 	lsrne.w	r2, r2, ip
    3606:	4313      	orrne	r3, r2
    3608:	f04f 0c01 	mov.w	ip, #1
    360c:	ea4c 2c0c 	orr.w	ip, ip, ip, lsl #8
    3610:	ea4c 4c0c 	orr.w	ip, ip, ip, lsl #16
    3614:	eba3 020c 	sub.w	r2, r3, ip
    3618:	ea22 0203 	bic.w	r2, r2, r3
    361c:	ea12 12cc 	ands.w	r2, r2, ip, lsl #7
    3620:	bf04      	itt	eq
    3622:	f851 3b04 	ldreq.w	r3, [r1], #4
    3626:	3004      	addeq	r0, #4
    3628:	d0f4      	beq.n	3614 <strlen+0x30>
    362a:	f013 0fff 	tst.w	r3, #255	; 0xff
    362e:	bf1f      	itttt	ne
    3630:	3001      	addne	r0, #1
    3632:	f413 4f7f 	tstne.w	r3, #65280	; 0xff00
    3636:	3001      	addne	r0, #1
    3638:	f413 0f7f 	tstne.w	r3, #16711680	; 0xff0000
    363c:	bf18      	it	ne
    363e:	3001      	addne	r0, #1
    3640:	4770      	bx	lr
    3642:	bf00      	nop

00003644 <CSWTCH.5>:
    3644:	4101 0081                                   .A..

00003648 <CSWTCH.7>:
    3648:	0201 0000 3a43 555c 6573 7372 575c 6c69     ....C:\Users\Wil
    3658:	656c 206d 654d 636c 6968 676e 445c 636f     lem Melching\Doc
    3668:	6d75 6e65 7374 475c 7469 7548 5c62 6f43     uments\GitHub\Co
    3678:	7472 7865 6946 746c 7265 6c5c 6370 3731     rtexFilter\lpc17
    3688:	7878 6c5f 6269 735c 756f 6372 5c65 706c     xx_lib\source\lp
    3698:	3163 7837 5f78 6175 7472 632e 0000 0000     c17xx_uart.c....

000036a8 <CSWTCH.1>:
    36a8:	1008 0000 3a43 555c 6573 7372 575c 6c69     ....C:\Users\Wil
    36b8:	656c 206d 654d 636c 6968 676e 445c 636f     lem Melching\Doc
    36c8:	6d75 6e65 7374 475c 7469 7548 5c62 6f43     uments\GitHub\Co
    36d8:	7472 7865 6946 746c 7265 6c5c 6370 3731     rtexFilter\lpc17
    36e8:	7878 6c5f 6269 735c 756f 6372 5c65 706c     xx_lib\source\lp
    36f8:	3163 7837 5f78 3269 2e73 0063               c17xx_i2s.c.

00003704 <GPDMA_LUTPerAddr>:
    3704:	8008 4008 8008 4008 0008 4003 0008 4003     ...@...@...@...@
    3714:	4004 4003 8008 400a 800c 400a c000 4008     .@.@...@...@...@
    3724:	c000 4000 c000 4000 0000 4001 0000 4001     ...@...@...@...@
    3734:	8000 4009 8000 4009 c000 4009 c000 4009     ...@...@...@...@
    3744:	4018 4000 401c 4000 8018 4000 801c 4000     .@.@.@.@...@...@
    3754:	0018 4009 001c 4009 4018 4009 401c 4009     ...@...@.@.@.@.@

00003764 <GPDMA_LUTPerBurst>:
    3764:	0101 0101 0401 0004 0000 0000 0000 0000     ................
	...

0000377c <GPDMA_LUTPerWid>:
    377c:	0000 0000 0202 0002 0000 0000 0000 0000     ................
    378c:	0202 0202 0202 0202 3a43 555c 6573 7372     ........C:\Users
    379c:	575c 6c69 656c 206d 654d 636c 6968 676e     \Willem Melching
    37ac:	445c 636f 6d75 6e65 7374 475c 7469 7548     \Documents\GitHu
    37bc:	5c62 6f43 7472 7865 6946 746c 7265 6c5c     b\CortexFilter\l
    37cc:	6370 3731 7878 6c5f 6269 735c 756f 6372     pc17xx_lib\sourc
    37dc:	5c65 706c 3163 7837 5f78 7067 6d64 2e61     e\lpc17xx_gpdma.
    37ec:	0063 0000 4d44 0d41 000a 0000 6f42 746f     c...DMA.....Boot
    37fc:	6465 0d0a 0000 0000                         ed......

00003804 <CSWTCH.6>:
    3804:	c000 2009 c020 2009 c040 2009 c060 2009     ...  .. @.. `.. 
    3814:	c080 2009                                   ... 

00003818 <CSWTCH.8>:
    3818:	c000 2009 c020 2009 c040 2009 c060 2009     ...  .. @.. `.. 
    3828:	c080 2009                                   ... 

0000382c <CSWTCH.10>:
    382c:	c000 2009 c020 2009 c040 2009 c060 2009     ...  .. @.. `.. 
    383c:	c080 2009                                   ... 

00003840 <digits.6718>:
    3840:	3130 3332 3534 3736 3938 0000 0a0d 0000     0123456789......
    3850:	002c 0000                                   ,...
